
Calculator.elf:     file format elf32-avr

Sections:
Idx Name          Size      VMA       LMA       File off  Algn
  0 .text         000022f4  00000000  00000000  00000094  2**1
                  CONTENTS, ALLOC, LOAD, READONLY, CODE
  1 .data         0000002a  00800060  000022f4  00002388  2**0
                  CONTENTS, ALLOC, LOAD, DATA
  2 .bss          00000044  0080008a  0080008a  000023b2  2**0
                  ALLOC
  3 .comment      00000030  00000000  00000000  000023b2  2**0
                  CONTENTS, READONLY
  4 .note.gnu.avr.deviceinfo 0000003c  00000000  00000000  000023e4  2**2
                  CONTENTS, READONLY
  5 .debug_aranges 000001c8  00000000  00000000  00002420  2**0
                  CONTENTS, READONLY, DEBUGGING
  6 .debug_info   00003a5f  00000000  00000000  000025e8  2**0
                  CONTENTS, READONLY, DEBUGGING
  7 .debug_abbrev 00000d81  00000000  00000000  00006047  2**0
                  CONTENTS, READONLY, DEBUGGING
  8 .debug_line   00001a3f  00000000  00000000  00006dc8  2**0
                  CONTENTS, READONLY, DEBUGGING
  9 .debug_frame  000005bc  00000000  00000000  00008808  2**2
                  CONTENTS, READONLY, DEBUGGING
 10 .debug_str    00000a09  00000000  00000000  00008dc4  2**0
                  CONTENTS, READONLY, DEBUGGING
 11 .debug_loc    00003109  00000000  00000000  000097cd  2**0
                  CONTENTS, READONLY, DEBUGGING
 12 .debug_ranges 000001f0  00000000  00000000  0000c8d6  2**0
                  CONTENTS, READONLY, DEBUGGING

Disassembly of section .text:

00000000 <__vectors>:
       0:	0c 94 42 00 	jmp	0x84	; 0x84 <__ctors_end>
       4:	0c 94 5f 00 	jmp	0xbe	; 0xbe <__bad_interrupt>
       8:	0c 94 5f 00 	jmp	0xbe	; 0xbe <__bad_interrupt>
       c:	0c 94 5f 00 	jmp	0xbe	; 0xbe <__bad_interrupt>
      10:	0c 94 5f 00 	jmp	0xbe	; 0xbe <__bad_interrupt>
      14:	0c 94 5f 00 	jmp	0xbe	; 0xbe <__bad_interrupt>
      18:	0c 94 5f 00 	jmp	0xbe	; 0xbe <__bad_interrupt>
      1c:	0c 94 5f 00 	jmp	0xbe	; 0xbe <__bad_interrupt>
      20:	0c 94 5f 00 	jmp	0xbe	; 0xbe <__bad_interrupt>
      24:	0c 94 5f 00 	jmp	0xbe	; 0xbe <__bad_interrupt>
      28:	0c 94 5f 00 	jmp	0xbe	; 0xbe <__bad_interrupt>
      2c:	0c 94 5f 00 	jmp	0xbe	; 0xbe <__bad_interrupt>
      30:	0c 94 5f 00 	jmp	0xbe	; 0xbe <__bad_interrupt>
      34:	0c 94 5f 00 	jmp	0xbe	; 0xbe <__bad_interrupt>
      38:	0c 94 5f 00 	jmp	0xbe	; 0xbe <__bad_interrupt>
      3c:	0c 94 5f 00 	jmp	0xbe	; 0xbe <__bad_interrupt>
      40:	0c 94 5f 00 	jmp	0xbe	; 0xbe <__bad_interrupt>
      44:	0c 94 5f 00 	jmp	0xbe	; 0xbe <__bad_interrupt>
      48:	0c 94 5f 00 	jmp	0xbe	; 0xbe <__bad_interrupt>
      4c:	0c 94 5f 00 	jmp	0xbe	; 0xbe <__bad_interrupt>
      50:	0c 94 5f 00 	jmp	0xbe	; 0xbe <__bad_interrupt>
      54:	24 09       	sbc	r18, r4
      56:	2d 09       	sbc	r18, r13
      58:	59 09       	sbc	r21, r9
      5a:	8e 09       	sbc	r24, r14
      5c:	c3 09       	sbc	r28, r3
      5e:	d4 09       	sbc	r29, r4
      60:	0d 0a       	sbc	r0, r29
      62:	40 0a       	sbc	r4, r16
      64:	73 0a       	sbc	r7, r19
      66:	aa 0a       	sbc	r10, r26
      68:	e1 0a       	sbc	r14, r17
      6a:	18 0b       	sbc	r17, r24
      6c:	4b 0b       	sbc	r20, r27
      6e:	82 0b       	sbc	r24, r18
      70:	b9 0b       	sbc	r27, r25
      72:	f0 0b       	sbc	r31, r16
      74:	23 0c       	add	r2, r3
      76:	5a 0c       	add	r5, r10
      78:	91 0c       	add	r9, r1
      7a:	c8 0c       	add	r12, r8
      7c:	fc 0c       	add	r15, r12
      7e:	32 0d       	add	r19, r2
      80:	9a 0d       	add	r25, r10
      82:	66 0d       	add	r22, r6

00000084 <__ctors_end>:
      84:	11 24       	eor	r1, r1
      86:	1f be       	out	0x3f, r1	; 63
      88:	cf e5       	ldi	r28, 0x5F	; 95
      8a:	d4 e0       	ldi	r29, 0x04	; 4
      8c:	de bf       	out	0x3e, r29	; 62
      8e:	cd bf       	out	0x3d, r28	; 61

00000090 <__do_copy_data>:
      90:	10 e0       	ldi	r17, 0x00	; 0
      92:	a0 e6       	ldi	r26, 0x60	; 96
      94:	b0 e0       	ldi	r27, 0x00	; 0
      96:	e4 ef       	ldi	r30, 0xF4	; 244
      98:	f2 e2       	ldi	r31, 0x22	; 34
      9a:	02 c0       	rjmp	.+4      	; 0xa0 <__do_copy_data+0x10>
      9c:	05 90       	lpm	r0, Z+
      9e:	0d 92       	st	X+, r0
      a0:	aa 38       	cpi	r26, 0x8A	; 138
      a2:	b1 07       	cpc	r27, r17
      a4:	d9 f7       	brne	.-10     	; 0x9c <__do_copy_data+0xc>

000000a6 <__do_clear_bss>:
      a6:	20 e0       	ldi	r18, 0x00	; 0
      a8:	aa e8       	ldi	r26, 0x8A	; 138
      aa:	b0 e0       	ldi	r27, 0x00	; 0
      ac:	01 c0       	rjmp	.+2      	; 0xb0 <.do_clear_bss_start>

000000ae <.do_clear_bss_loop>:
      ae:	1d 92       	st	X+, r1

000000b0 <.do_clear_bss_start>:
      b0:	ae 3c       	cpi	r26, 0xCE	; 206
      b2:	b2 07       	cpc	r27, r18
      b4:	e1 f7       	brne	.-8      	; 0xae <.do_clear_bss_loop>
      b6:	0e 94 1d 0e 	call	0x1c3a	; 0x1c3a <main>
      ba:	0c 94 78 11 	jmp	0x22f0	; 0x22f0 <_exit>

000000be <__bad_interrupt>:
      be:	0c 94 00 00 	jmp	0	; 0x0 <__vectors>

000000c2 <_Z12keypad_setupv>:
	}
}

void keypad_setup() {
	// initialize the digital pin as an output:
	DDRA |= (1<<0) | (1<<1) | (1<<2) | (1<<3);
      c2:	8a b3       	in	r24, 0x1a	; 26
      c4:	8f 60       	ori	r24, 0x0F	; 15
      c6:	8a bb       	out	0x1a, r24	; 26
	DDRD &= ~(1<<0) &~(1<<1) &~(1<<2) &~(1<<3) &~(1<<4) &~(1<<5);
      c8:	81 b3       	in	r24, 0x11	; 17
      ca:	80 7c       	andi	r24, 0xC0	; 192
      cc:	81 bb       	out	0x11, r24	; 17
	//PORTB |= (1<<3) | (1<<4) | (1<<5) | (1<<6);
	//keypad_reset_output(); //cac chan cot ve 0
	// configure pull ups
	//PORTD &= ~(1<<0) &~(1<<1) &~(1<<2) &~(1<<3)  &~(1<<4) &~(1<<5); //cac chan hang ve 0
	PORTD |= (1<<0) | (1<<1) | (1<<2) | (1<<3)  | (1<<4) | (1<<5);
      ce:	82 b3       	in	r24, 0x12	; 18
      d0:	8f 63       	ori	r24, 0x3F	; 63
      d2:	82 bb       	out	0x12, r24	; 18
      d4:	08 95       	ret

000000d6 <_Z19keypad_read_buttonsv>:
unsigned char keypad_read_buttons() {
	
	unsigned char index;
	unsigned char y = 0; //cot
	
	for (int i = KEYPAD_OUTPUT_BEGIN; i <= KEYPAD_OUTPUT_END; i++) {
      d6:	e0 e0       	ldi	r30, 0x00	; 0
      d8:	f0 e0       	ldi	r31, 0x00	; 0


unsigned char keypad_read_buttons() {
	
	unsigned char index;
	unsigned char y = 0; //cot
      da:	80 e0       	ldi	r24, 0x00	; 0
	
	for (int i = KEYPAD_OUTPUT_BEGIN; i <= KEYPAD_OUTPUT_END; i++) {
      dc:	e4 30       	cpi	r30, 0x04	; 4
      de:	f1 05       	cpc	r31, r1
      e0:	e4 f5       	brge	.+120    	; 0x15a <_Z19keypad_read_buttonsv+0x84>

		PORTA &= ~(1 << i);
      e2:	2b b3       	in	r18, 0x1b	; 27
      e4:	61 e0       	ldi	r22, 0x01	; 1
      e6:	70 e0       	ldi	r23, 0x00	; 0
      e8:	0e 2e       	mov	r0, r30
      ea:	02 c0       	rjmp	.+4      	; 0xf0 <_Z19keypad_read_buttonsv+0x1a>
      ec:	66 0f       	add	r22, r22
      ee:	77 1f       	adc	r23, r23
      f0:	0a 94       	dec	r0
      f2:	e2 f7       	brpl	.-8      	; 0xec <_Z19keypad_read_buttonsv+0x16>
      f4:	96 2f       	mov	r25, r22
      f6:	90 95       	com	r25
      f8:	29 23       	and	r18, r25
      fa:	2b bb       	out	0x1b, r18	; 27
	#else
		//round up by default
		__ticks_dc = (uint32_t)(ceil(fabs(__tmp)));
	#endif

	__builtin_avr_delay_cycles(__ticks_dc);
      fc:	a3 ec       	ldi	r26, 0xC3	; 195
      fe:	b9 e0       	ldi	r27, 0x09	; 9
     100:	11 97       	sbiw	r26, 0x01	; 1
     102:	f1 f7       	brne	.-4      	; 0x100 <_Z19keypad_read_buttonsv+0x2a>
     104:	00 c0       	rjmp	.+0      	; 0x106 <_Z19keypad_read_buttonsv+0x30>
     106:	00 00       	nop
		_delay_ms(10);
		
		unsigned char x = 0; // hang
		
		for (int j = KEYPAD_INPUT_BEGIN; j <= KEYPAD_INPUT_END; j++) {
     108:	40 e0       	ldi	r20, 0x00	; 0
     10a:	50 e0       	ldi	r21, 0x00	; 0
	for (int i = KEYPAD_OUTPUT_BEGIN; i <= KEYPAD_OUTPUT_END; i++) {

		PORTA &= ~(1 << i);
		_delay_ms(10);
		
		unsigned char x = 0; // hang
     10c:	90 e0       	ldi	r25, 0x00	; 0
		
		for (int j = KEYPAD_INPUT_BEGIN; j <= KEYPAD_INPUT_END; j++) {
     10e:	46 30       	cpi	r20, 0x06	; 6
     110:	51 05       	cpc	r21, r1
     112:	ec f4       	brge	.+58     	; 0x14e <_Z19keypad_read_buttonsv+0x78>
			
			if  (!(PIND & (1 << j))) {
     114:	20 b3       	in	r18, 0x10	; 16
     116:	30 e0       	ldi	r19, 0x00	; 0
     118:	04 2e       	mov	r0, r20
     11a:	02 c0       	rjmp	.+4      	; 0x120 <_Z19keypad_read_buttonsv+0x4a>
     11c:	35 95       	asr	r19
     11e:	27 95       	ror	r18
     120:	0a 94       	dec	r0
     122:	e2 f7       	brpl	.-8      	; 0x11c <_Z19keypad_read_buttonsv+0x46>
     124:	20 fd       	sbrc	r18, 0
     126:	0f c0       	rjmp	.+30     	; 0x146 <_Z19keypad_read_buttonsv+0x70>
				
				index = y + (KEYPAD_OUTPUT_END - KEYPAD_OUTPUT_BEGIN + 1) * x; //index = 4x + y
     128:	99 0f       	add	r25, r25
     12a:	99 0f       	add	r25, r25
     12c:	98 0f       	add	r25, r24
				while (!(PIND & (1 << j)));
     12e:	20 b3       	in	r18, 0x10	; 16
     130:	30 e0       	ldi	r19, 0x00	; 0
     132:	04 2e       	mov	r0, r20
     134:	02 c0       	rjmp	.+4      	; 0x13a <_Z19keypad_read_buttonsv+0x64>
     136:	35 95       	asr	r19
     138:	27 95       	ror	r18
     13a:	0a 94       	dec	r0
     13c:	e2 f7       	brpl	.-8      	; 0x136 <_Z19keypad_read_buttonsv+0x60>
     13e:	20 ff       	sbrs	r18, 0
     140:	f6 cf       	rjmp	.-20     	; 0x12e <_Z19keypad_read_buttonsv+0x58>
				
				return index;
     142:	89 2f       	mov	r24, r25
     144:	08 95       	ret
			}
			x++;
     146:	9f 5f       	subi	r25, 0xFF	; 255
		PORTA &= ~(1 << i);
		_delay_ms(10);
		
		unsigned char x = 0; // hang
		
		for (int j = KEYPAD_INPUT_BEGIN; j <= KEYPAD_INPUT_END; j++) {
     148:	4f 5f       	subi	r20, 0xFF	; 255
     14a:	5f 4f       	sbci	r21, 0xFF	; 255
     14c:	e0 cf       	rjmp	.-64     	; 0x10e <_Z19keypad_read_buttonsv+0x38>
				
				return index;
			}
			x++;
		}
		y++;
     14e:	8f 5f       	subi	r24, 0xFF	; 255
		PORTA |= (1 << i);
     150:	9b b3       	in	r25, 0x1b	; 27
     152:	69 2b       	or	r22, r25
     154:	6b bb       	out	0x1b, r22	; 27
unsigned char keypad_read_buttons() {
	
	unsigned char index;
	unsigned char y = 0; //cot
	
	for (int i = KEYPAD_OUTPUT_BEGIN; i <= KEYPAD_OUTPUT_END; i++) {
     156:	31 96       	adiw	r30, 0x01	; 1
     158:	c1 cf       	rjmp	.-126    	; 0xdc <_Z19keypad_read_buttonsv+0x6>
		}
		y++;
		PORTA |= (1 << i);
	}
	
	return -1; // No button pressed
     15a:	8f ef       	ldi	r24, 0xFF	; 255
}
     15c:	08 95       	ret

0000015e <_Z10precedencec>:
	if (error == -1) 
	{
		return 1;
	}
	return 0;
}
     15e:	8b 32       	cpi	r24, 0x2B	; 43
     160:	69 f0       	breq	.+26     	; 0x17c <_Z10precedencec+0x1e>
     162:	8d 32       	cpi	r24, 0x2D	; 45
     164:	71 f0       	breq	.+28     	; 0x182 <_Z10precedencec+0x24>
     166:	8a 32       	cpi	r24, 0x2A	; 42
     168:	79 f0       	breq	.+30     	; 0x188 <_Z10precedencec+0x2a>
     16a:	8f 32       	cpi	r24, 0x2F	; 47
     16c:	81 f0       	breq	.+32     	; 0x18e <_Z10precedencec+0x30>
     16e:	8e 35       	cpi	r24, 0x5E	; 94
     170:	89 f0       	breq	.+34     	; 0x194 <_Z10precedencec+0x36>
     172:	85 32       	cpi	r24, 0x25	; 37
     174:	91 f4       	brne	.+36     	; 0x19a <_Z10precedencec+0x3c>
     176:	83 e0       	ldi	r24, 0x03	; 3
     178:	90 e0       	ldi	r25, 0x00	; 0
     17a:	08 95       	ret
     17c:	81 e0       	ldi	r24, 0x01	; 1
     17e:	90 e0       	ldi	r25, 0x00	; 0
     180:	08 95       	ret
     182:	81 e0       	ldi	r24, 0x01	; 1
     184:	90 e0       	ldi	r25, 0x00	; 0
     186:	08 95       	ret
     188:	82 e0       	ldi	r24, 0x02	; 2
     18a:	90 e0       	ldi	r25, 0x00	; 0
     18c:	08 95       	ret
     18e:	82 e0       	ldi	r24, 0x02	; 2
     190:	90 e0       	ldi	r25, 0x00	; 0
     192:	08 95       	ret
     194:	83 e0       	ldi	r24, 0x03	; 3
     196:	90 e0       	ldi	r25, 0x00	; 0
     198:	08 95       	ret
     19a:	80 e0       	ldi	r24, 0x00	; 0
     19c:	90 e0       	ldi	r25, 0x00	; 0
     19e:	08 95       	ret

000001a0 <_Z5powerxx>:
     1a0:	2f 92       	push	r2
     1a2:	3f 92       	push	r3
     1a4:	4f 92       	push	r4
     1a6:	5f 92       	push	r5
     1a8:	6f 92       	push	r6
     1aa:	7f 92       	push	r7
     1ac:	8f 92       	push	r8
     1ae:	9f 92       	push	r9
     1b0:	af 92       	push	r10
     1b2:	bf 92       	push	r11
     1b4:	cf 92       	push	r12
     1b6:	df 92       	push	r13
     1b8:	ef 92       	push	r14
     1ba:	ff 92       	push	r15
     1bc:	0f 93       	push	r16
     1be:	1f 93       	push	r17
     1c0:	cf 93       	push	r28
     1c2:	df 93       	push	r29
     1c4:	cd b7       	in	r28, 0x3d	; 61
     1c6:	de b7       	in	r29, 0x3e	; 62
     1c8:	2e 97       	sbiw	r28, 0x0e	; 14
     1ca:	0f b6       	in	r0, 0x3f	; 63
     1cc:	f8 94       	cli
     1ce:	de bf       	out	0x3e, r29	; 62
     1d0:	0f be       	out	0x3f, r0	; 63
     1d2:	cd bf       	out	0x3d, r28	; 61
     1d4:	2d 83       	std	Y+5, r18	; 0x05
     1d6:	3e 83       	std	Y+6, r19	; 0x06
     1d8:	4f 83       	std	Y+7, r20	; 0x07
     1da:	58 87       	std	Y+8, r21	; 0x08
     1dc:	69 87       	std	Y+9, r22	; 0x09
     1de:	7a 87       	std	Y+10, r23	; 0x0a
     1e0:	8b 87       	std	Y+11, r24	; 0x0b
     1e2:	9c 87       	std	Y+12, r25	; 0x0c
     1e4:	2a 2c       	mov	r2, r10
     1e6:	3b 2c       	mov	r3, r11
     1e8:	8c 2c       	mov	r8, r12
     1ea:	9d 2c       	mov	r9, r13
     1ec:	e9 82       	std	Y+1, r14	; 0x01
     1ee:	fa 82       	std	Y+2, r15	; 0x02
     1f0:	0b 83       	std	Y+3, r16	; 0x03
     1f2:	1c 83       	std	Y+4, r17	; 0x04
     1f4:	1e 86       	std	Y+14, r1	; 0x0e
     1f6:	1d 86       	std	Y+13, r1	; 0x0d
     1f8:	0f 2e       	mov	r0, r31
     1fa:	41 2c       	mov	r4, r1
     1fc:	51 2c       	mov	r5, r1
     1fe:	f0 e8       	ldi	r31, 0x80	; 128
     200:	6f 2e       	mov	r6, r31
     202:	ff e3       	ldi	r31, 0x3F	; 63
     204:	7f 2e       	mov	r7, r31
     206:	f0 2d       	mov	r31, r0
     208:	2d 85       	ldd	r18, Y+13	; 0x0d
     20a:	3e 85       	ldd	r19, Y+14	; 0x0e
     20c:	93 2f       	mov	r25, r19
     20e:	99 0f       	add	r25, r25
     210:	99 0b       	sbc	r25, r25
     212:	49 2f       	mov	r20, r25
     214:	59 2f       	mov	r21, r25
     216:	69 2f       	mov	r22, r25
     218:	79 2f       	mov	r23, r25
     21a:	89 2f       	mov	r24, r25
     21c:	a2 2c       	mov	r10, r2
     21e:	b3 2c       	mov	r11, r3
     220:	c8 2c       	mov	r12, r8
     222:	d9 2c       	mov	r13, r9
     224:	e9 80       	ldd	r14, Y+1	; 0x01
     226:	fa 80       	ldd	r15, Y+2	; 0x02
     228:	0b 81       	ldd	r16, Y+3	; 0x03
     22a:	1c 81       	ldd	r17, Y+4	; 0x04
     22c:	0e 94 63 11 	call	0x22c6	; 0x22c6 <__cmpdi2>
     230:	c4 f4       	brge	.+48     	; 0x262 <__EEPROM_REGION_LENGTH__+0x62>
     232:	2d 81       	ldd	r18, Y+5	; 0x05
     234:	3e 81       	ldd	r19, Y+6	; 0x06
     236:	4f 81       	ldd	r20, Y+7	; 0x07
     238:	58 85       	ldd	r21, Y+8	; 0x08
     23a:	69 85       	ldd	r22, Y+9	; 0x09
     23c:	7a 85       	ldd	r23, Y+10	; 0x0a
     23e:	8b 85       	ldd	r24, Y+11	; 0x0b
     240:	9c 85       	ldd	r25, Y+12	; 0x0c
     242:	0e 94 7d 0f 	call	0x1efa	; 0x1efa <__floatdisf>
     246:	9b 01       	movw	r18, r22
     248:	ac 01       	movw	r20, r24
     24a:	c3 01       	movw	r24, r6
     24c:	b2 01       	movw	r22, r4
     24e:	0e 94 88 10 	call	0x2110	; 0x2110 <__mulsf3>
     252:	2b 01       	movw	r4, r22
     254:	3c 01       	movw	r6, r24
     256:	8d 85       	ldd	r24, Y+13	; 0x0d
     258:	9e 85       	ldd	r25, Y+14	; 0x0e
     25a:	01 96       	adiw	r24, 0x01	; 1
     25c:	9e 87       	std	Y+14, r25	; 0x0e
     25e:	8d 87       	std	Y+13, r24	; 0x0d
     260:	d3 cf       	rjmp	.-90     	; 0x208 <__EEPROM_REGION_LENGTH__+0x8>
     262:	c3 01       	movw	r24, r6
     264:	b2 01       	movw	r22, r4
     266:	2e 96       	adiw	r28, 0x0e	; 14
     268:	0f b6       	in	r0, 0x3f	; 63
     26a:	f8 94       	cli
     26c:	de bf       	out	0x3e, r29	; 62
     26e:	0f be       	out	0x3f, r0	; 63
     270:	cd bf       	out	0x3d, r28	; 61
     272:	df 91       	pop	r29
     274:	cf 91       	pop	r28
     276:	1f 91       	pop	r17
     278:	0f 91       	pop	r16
     27a:	ff 90       	pop	r15
     27c:	ef 90       	pop	r14
     27e:	df 90       	pop	r13
     280:	cf 90       	pop	r12
     282:	bf 90       	pop	r11
     284:	af 90       	pop	r10
     286:	9f 90       	pop	r9
     288:	8f 90       	pop	r8
     28a:	7f 90       	pop	r7
     28c:	6f 90       	pop	r6
     28e:	5f 90       	pop	r5
     290:	4f 90       	pop	r4
     292:	3f 90       	pop	r3
     294:	2f 90       	pop	r2
     296:	08 95       	ret

00000298 <_Z8sqrt_numf>:
     298:	8f 92       	push	r8
     29a:	9f 92       	push	r9
     29c:	af 92       	push	r10
     29e:	bf 92       	push	r11
     2a0:	cf 92       	push	r12
     2a2:	df 92       	push	r13
     2a4:	ef 92       	push	r14
     2a6:	ff 92       	push	r15
     2a8:	0f 93       	push	r16
     2aa:	1f 93       	push	r17
     2ac:	cf 93       	push	r28
     2ae:	df 93       	push	r29
     2b0:	6b 01       	movw	r12, r22
     2b2:	7c 01       	movw	r14, r24
     2b4:	20 e0       	ldi	r18, 0x00	; 0
     2b6:	30 e0       	ldi	r19, 0x00	; 0
     2b8:	40 e0       	ldi	r20, 0x00	; 0
     2ba:	5f e3       	ldi	r21, 0x3F	; 63
     2bc:	0e 94 88 10 	call	0x2110	; 0x2110 <__mulsf3>
     2c0:	d6 2f       	mov	r29, r22
     2c2:	c7 2f       	mov	r28, r23
     2c4:	98 2e       	mov	r9, r24
     2c6:	89 2e       	mov	r8, r25
     2c8:	2d 2f       	mov	r18, r29
     2ca:	3c 2f       	mov	r19, r28
     2cc:	49 2d       	mov	r20, r9
     2ce:	58 2d       	mov	r21, r8
     2d0:	c7 01       	movw	r24, r14
     2d2:	b6 01       	movw	r22, r12
     2d4:	0e 94 a0 0e 	call	0x1d40	; 0x1d40 <__divsf3>
     2d8:	9b 01       	movw	r18, r22
     2da:	ac 01       	movw	r20, r24
     2dc:	6d 2f       	mov	r22, r29
     2de:	7c 2f       	mov	r23, r28
     2e0:	89 2d       	mov	r24, r9
     2e2:	98 2d       	mov	r25, r8
     2e4:	0e 94 2f 0e 	call	0x1c5e	; 0x1c5e <__addsf3>
     2e8:	20 e0       	ldi	r18, 0x00	; 0
     2ea:	30 e0       	ldi	r19, 0x00	; 0
     2ec:	40 e0       	ldi	r20, 0x00	; 0
     2ee:	5f e3       	ldi	r21, 0x3F	; 63
     2f0:	0e 94 88 10 	call	0x2110	; 0x2110 <__mulsf3>
     2f4:	a6 2e       	mov	r10, r22
     2f6:	b7 2e       	mov	r11, r23
     2f8:	08 2f       	mov	r16, r24
     2fa:	19 2f       	mov	r17, r25
     2fc:	2d 2f       	mov	r18, r29
     2fe:	3c 2f       	mov	r19, r28
     300:	49 2d       	mov	r20, r9
     302:	58 2d       	mov	r21, r8
     304:	0e 94 2e 0e 	call	0x1c5c	; 0x1c5c <__subsf3>
     308:	9f 77       	andi	r25, 0x7F	; 127
     30a:	da 2d       	mov	r29, r10
     30c:	cb 2d       	mov	r28, r11
     30e:	90 2e       	mov	r9, r16
     310:	81 2e       	mov	r8, r17
     312:	2c ea       	ldi	r18, 0xAC	; 172
     314:	35 ec       	ldi	r19, 0xC5	; 197
     316:	47 e2       	ldi	r20, 0x27	; 39
     318:	57 e3       	ldi	r21, 0x37	; 55
     31a:	0e 94 83 10 	call	0x2106	; 0x2106 <__gesf2>
     31e:	88 23       	and	r24, r24
     320:	9c f6       	brge	.-90     	; 0x2c8 <_Z8sqrt_numf+0x30>
     322:	6a 2d       	mov	r22, r10
     324:	7b 2d       	mov	r23, r11
     326:	80 2f       	mov	r24, r16
     328:	91 2f       	mov	r25, r17
     32a:	df 91       	pop	r29
     32c:	cf 91       	pop	r28
     32e:	1f 91       	pop	r17
     330:	0f 91       	pop	r16
     332:	ff 90       	pop	r15
     334:	ef 90       	pop	r14
     336:	df 90       	pop	r13
     338:	cf 90       	pop	r12
     33a:	bf 90       	pop	r11
     33c:	af 90       	pop	r10
     33e:	9f 90       	pop	r9
     340:	8f 90       	pop	r8
     342:	08 95       	ret

00000344 <_Z19performCalculationsddc>:
     344:	0f 93       	push	r16
     346:	0b 32       	cpi	r16, 0x2B	; 43
     348:	69 f0       	breq	.+26     	; 0x364 <_Z19performCalculationsddc+0x20>
     34a:	28 f4       	brcc	.+10     	; 0x356 <_Z19performCalculationsddc+0x12>
     34c:	05 32       	cpi	r16, 0x25	; 37
     34e:	b1 f0       	breq	.+44     	; 0x37c <_Z19performCalculationsddc+0x38>
     350:	0a 32       	cpi	r16, 0x2A	; 42
     352:	71 f0       	breq	.+28     	; 0x370 <_Z19performCalculationsddc+0x2c>
     354:	1f c0       	rjmp	.+62     	; 0x394 <_Z19performCalculationsddc+0x50>
     356:	0f 32       	cpi	r16, 0x2F	; 47
     358:	71 f0       	breq	.+28     	; 0x376 <_Z19performCalculationsddc+0x32>
     35a:	0e 35       	cpi	r16, 0x5E	; 94
     35c:	b1 f0       	breq	.+44     	; 0x38a <_Z19performCalculationsddc+0x46>
     35e:	0d 32       	cpi	r16, 0x2D	; 45
     360:	c9 f4       	brne	.+50     	; 0x394 <_Z19performCalculationsddc+0x50>
     362:	03 c0       	rjmp	.+6      	; 0x36a <_Z19performCalculationsddc+0x26>
     364:	0e 94 2f 0e 	call	0x1c5e	; 0x1c5e <__addsf3>
     368:	18 c0       	rjmp	.+48     	; 0x39a <_Z19performCalculationsddc+0x56>
     36a:	0e 94 2e 0e 	call	0x1c5c	; 0x1c5c <__subsf3>
     36e:	15 c0       	rjmp	.+42     	; 0x39a <_Z19performCalculationsddc+0x56>
     370:	0e 94 88 10 	call	0x2110	; 0x2110 <__mulsf3>
     374:	12 c0       	rjmp	.+36     	; 0x39a <_Z19performCalculationsddc+0x56>
     376:	0e 94 a0 0e 	call	0x1d40	; 0x1d40 <__divsf3>
     37a:	0f c0       	rjmp	.+30     	; 0x39a <_Z19performCalculationsddc+0x56>
     37c:	20 e0       	ldi	r18, 0x00	; 0
     37e:	30 e0       	ldi	r19, 0x00	; 0
     380:	48 ec       	ldi	r20, 0xC8	; 200
     382:	52 e4       	ldi	r21, 0x42	; 66
     384:	0e 94 a0 0e 	call	0x1d40	; 0x1d40 <__divsf3>
     388:	08 c0       	rjmp	.+16     	; 0x39a <_Z19performCalculationsddc+0x56>
     38a:	ca 01       	movw	r24, r20
     38c:	b9 01       	movw	r22, r18
     38e:	0e 94 4c 01 	call	0x298	; 0x298 <_Z8sqrt_numf>
     392:	03 c0       	rjmp	.+6      	; 0x39a <_Z19performCalculationsddc+0x56>
     394:	60 e0       	ldi	r22, 0x00	; 0
     396:	70 e0       	ldi	r23, 0x00	; 0
     398:	cb 01       	movw	r24, r22
     39a:	0f 91       	pop	r16
     39c:	08 95       	ret

0000039e <_Z19evaluate_expressionPKc>:
     39e:	4f 92       	push	r4
     3a0:	5f 92       	push	r5
     3a2:	6f 92       	push	r6
     3a4:	7f 92       	push	r7
     3a6:	8f 92       	push	r8
     3a8:	9f 92       	push	r9
     3aa:	af 92       	push	r10
     3ac:	bf 92       	push	r11
     3ae:	cf 92       	push	r12
     3b0:	df 92       	push	r13
     3b2:	ef 92       	push	r14
     3b4:	ff 92       	push	r15
     3b6:	0f 93       	push	r16
     3b8:	1f 93       	push	r17
     3ba:	cf 93       	push	r28
     3bc:	df 93       	push	r29
     3be:	cd b7       	in	r28, 0x3d	; 61
     3c0:	de b7       	in	r29, 0x3e	; 62
     3c2:	cc 5f       	subi	r28, 0xFC	; 252
     3c4:	d1 09       	sbc	r29, r1
     3c6:	0f b6       	in	r0, 0x3f	; 63
     3c8:	f8 94       	cli
     3ca:	de bf       	out	0x3e, r29	; 62
     3cc:	0f be       	out	0x3f, r0	; 63
     3ce:	cd bf       	out	0x3d, r28	; 61
     3d0:	5c 01       	movw	r10, r24
     3d2:	ce 01       	movw	r24, r28
     3d4:	01 96       	adiw	r24, 0x01	; 1
     3d6:	0e 94 96 05 	call	0xb2c	; 0xb2c <_Z10stack_initP5Stack>
     3da:	ce 01       	movw	r24, r28
     3dc:	85 58       	subi	r24, 0x85	; 133
     3de:	9f 4f       	sbci	r25, 0xFF	; 255
     3e0:	0e 94 96 05 	call	0xb2c	; 0xb2c <_Z10stack_initP5Stack>
     3e4:	c1 2c       	mov	r12, r1
     3e6:	d1 2c       	mov	r13, r1
     3e8:	c7 50       	subi	r28, 0x07	; 7
     3ea:	df 4f       	sbci	r29, 0xFF	; 255
     3ec:	18 82       	st	Y, r1
     3ee:	19 82       	std	Y+1, r1	; 0x01
     3f0:	1a 82       	std	Y+2, r1	; 0x02
     3f2:	1b 82       	std	Y+3, r1	; 0x03
     3f4:	c9 5f       	subi	r28, 0xF9	; 249
     3f6:	d0 40       	sbci	r29, 0x00	; 0
     3f8:	01 c0       	rjmp	.+2      	; 0x3fc <_Z19evaluate_expressionPKc+0x5e>
     3fa:	57 01       	movw	r10, r14
     3fc:	75 01       	movw	r14, r10
     3fe:	8f ef       	ldi	r24, 0xFF	; 255
     400:	e8 1a       	sub	r14, r24
     402:	f8 0a       	sbc	r15, r24
     404:	d5 01       	movw	r26, r10
     406:	9c 90       	ld	r9, X
     408:	99 20       	and	r9, r9
     40a:	09 f4       	brne	.+2      	; 0x40e <__DATA_REGION_LENGTH__+0xe>
     40c:	b9 c1       	rjmp	.+882    	; 0x780 <__stack+0x321>
     40e:	b0 e2       	ldi	r27, 0x20	; 32
     410:	9b 16       	cp	r9, r27
     412:	99 f3       	breq	.-26     	; 0x3fa <_Z19evaluate_expressionPKc+0x5c>
     414:	89 2d       	mov	r24, r9
     416:	0e 94 8e 05 	call	0xb1c	; 0xb1c <_Z8is_digitc>
     41a:	89 2b       	or	r24, r25
     41c:	09 f4       	brne	.+2      	; 0x420 <__DATA_REGION_LENGTH__+0x20>
     41e:	b7 c0       	rjmp	.+366    	; 0x58e <__stack+0x12f>
     420:	69 2d       	mov	r22, r9
     422:	70 e0       	ldi	r23, 0x00	; 0
     424:	60 53       	subi	r22, 0x30	; 48
     426:	71 09       	sbc	r23, r1
     428:	07 2e       	mov	r0, r23
     42a:	00 0c       	add	r0, r0
     42c:	88 0b       	sbc	r24, r24
     42e:	99 0b       	sbc	r25, r25
     430:	0e 94 85 0f 	call	0x1f0a	; 0x1f0a <__floatsisf>
     434:	4b 01       	movw	r8, r22
     436:	5c 01       	movw	r10, r24
     438:	f7 01       	movw	r30, r14
     43a:	80 81       	ld	r24, Z
     43c:	0e 94 8e 05 	call	0xb1c	; 0xb1c <_Z8is_digitc>
     440:	89 2b       	or	r24, r25
     442:	31 f0       	breq	.+12     	; 0x450 <__DATA_REGION_LENGTH__+0x50>
     444:	d7 01       	movw	r26, r14
     446:	8c 91       	ld	r24, X
     448:	81 11       	cpse	r24, r1
     44a:	04 c0       	rjmp	.+8      	; 0x454 <__DATA_REGION_LENGTH__+0x54>
     44c:	10 e0       	ldi	r17, 0x00	; 0
     44e:	03 c0       	rjmp	.+6      	; 0x456 <__DATA_REGION_LENGTH__+0x56>
     450:	10 e0       	ldi	r17, 0x00	; 0
     452:	01 c0       	rjmp	.+2      	; 0x456 <__DATA_REGION_LENGTH__+0x56>
     454:	11 e0       	ldi	r17, 0x01	; 1
     456:	11 23       	and	r17, r17
     458:	11 f1       	breq	.+68     	; 0x49e <__stack+0x3f>
     45a:	20 e0       	ldi	r18, 0x00	; 0
     45c:	30 e0       	ldi	r19, 0x00	; 0
     45e:	40 e2       	ldi	r20, 0x20	; 32
     460:	51 e4       	ldi	r21, 0x41	; 65
     462:	c5 01       	movw	r24, r10
     464:	b4 01       	movw	r22, r8
     466:	0e 94 88 10 	call	0x2110	; 0x2110 <__mulsf3>
     46a:	4b 01       	movw	r8, r22
     46c:	5c 01       	movw	r10, r24
     46e:	87 01       	movw	r16, r14
     470:	0f 5f       	subi	r16, 0xFF	; 255
     472:	1f 4f       	sbci	r17, 0xFF	; 255
     474:	f7 01       	movw	r30, r14
     476:	60 81       	ld	r22, Z
     478:	70 e0       	ldi	r23, 0x00	; 0
     47a:	60 53       	subi	r22, 0x30	; 48
     47c:	71 09       	sbc	r23, r1
     47e:	07 2e       	mov	r0, r23
     480:	00 0c       	add	r0, r0
     482:	88 0b       	sbc	r24, r24
     484:	99 0b       	sbc	r25, r25
     486:	0e 94 85 0f 	call	0x1f0a	; 0x1f0a <__floatsisf>
     48a:	9b 01       	movw	r18, r22
     48c:	ac 01       	movw	r20, r24
     48e:	c5 01       	movw	r24, r10
     490:	b4 01       	movw	r22, r8
     492:	0e 94 2f 0e 	call	0x1c5e	; 0x1c5e <__addsf3>
     496:	4b 01       	movw	r8, r22
     498:	5c 01       	movw	r10, r24
     49a:	78 01       	movw	r14, r16
     49c:	cd cf       	rjmp	.-102    	; 0x438 <__DATA_REGION_LENGTH__+0x38>
     49e:	d7 01       	movw	r26, r14
     4a0:	8c 91       	ld	r24, X
     4a2:	8e 32       	cpi	r24, 0x2E	; 46
     4a4:	09 f0       	breq	.+2      	; 0x4a8 <__stack+0x49>
     4a6:	62 c0       	rjmp	.+196    	; 0x56c <__stack+0x10d>
     4a8:	bf ef       	ldi	r27, 0xFF	; 255
     4aa:	eb 1a       	sub	r14, r27
     4ac:	fb 0a       	sbc	r15, r27
     4ae:	0f 2e       	mov	r0, r31
     4b0:	fd ec       	ldi	r31, 0xCD	; 205
     4b2:	4f 2e       	mov	r4, r31
     4b4:	fc ec       	ldi	r31, 0xCC	; 204
     4b6:	5f 2e       	mov	r5, r31
     4b8:	65 2c       	mov	r6, r5
     4ba:	fd e3       	ldi	r31, 0x3D	; 61
     4bc:	7f 2e       	mov	r7, r31
     4be:	f0 2d       	mov	r31, r0
     4c0:	cb 50       	subi	r28, 0x0B	; 11
     4c2:	df 4f       	sbci	r29, 0xFF	; 255
     4c4:	18 82       	st	Y, r1
     4c6:	19 82       	std	Y+1, r1	; 0x01
     4c8:	1a 82       	std	Y+2, r1	; 0x02
     4ca:	1b 82       	std	Y+3, r1	; 0x03
     4cc:	c5 5f       	subi	r28, 0xF5	; 245
     4ce:	d0 40       	sbci	r29, 0x00	; 0
     4d0:	f7 01       	movw	r30, r14
     4d2:	80 81       	ld	r24, Z
     4d4:	0e 94 8e 05 	call	0xb1c	; 0xb1c <_Z8is_digitc>
     4d8:	89 2b       	or	r24, r25
     4da:	31 f0       	breq	.+12     	; 0x4e8 <__stack+0x89>
     4dc:	d7 01       	movw	r26, r14
     4de:	8c 91       	ld	r24, X
     4e0:	81 11       	cpse	r24, r1
     4e2:	04 c0       	rjmp	.+8      	; 0x4ec <__stack+0x8d>
     4e4:	81 2f       	mov	r24, r17
     4e6:	03 c0       	rjmp	.+6      	; 0x4ee <__stack+0x8f>
     4e8:	81 2f       	mov	r24, r17
     4ea:	01 c0       	rjmp	.+2      	; 0x4ee <__stack+0x8f>
     4ec:	81 e0       	ldi	r24, 0x01	; 1
     4ee:	88 23       	and	r24, r24
     4f0:	79 f1       	breq	.+94     	; 0x550 <__stack+0xf1>
     4f2:	f7 01       	movw	r30, r14
     4f4:	61 91       	ld	r22, Z+
     4f6:	7f 01       	movw	r14, r30
     4f8:	70 e0       	ldi	r23, 0x00	; 0
     4fa:	60 53       	subi	r22, 0x30	; 48
     4fc:	71 09       	sbc	r23, r1
     4fe:	07 2e       	mov	r0, r23
     500:	00 0c       	add	r0, r0
     502:	88 0b       	sbc	r24, r24
     504:	99 0b       	sbc	r25, r25
     506:	0e 94 85 0f 	call	0x1f0a	; 0x1f0a <__floatsisf>
     50a:	a3 01       	movw	r20, r6
     50c:	92 01       	movw	r18, r4
     50e:	0e 94 88 10 	call	0x2110	; 0x2110 <__mulsf3>
     512:	9b 01       	movw	r18, r22
     514:	ac 01       	movw	r20, r24
     516:	cb 50       	subi	r28, 0x0B	; 11
     518:	df 4f       	sbci	r29, 0xFF	; 255
     51a:	68 81       	ld	r22, Y
     51c:	79 81       	ldd	r23, Y+1	; 0x01
     51e:	8a 81       	ldd	r24, Y+2	; 0x02
     520:	9b 81       	ldd	r25, Y+3	; 0x03
     522:	c5 5f       	subi	r28, 0xF5	; 245
     524:	d0 40       	sbci	r29, 0x00	; 0
     526:	0e 94 2f 0e 	call	0x1c5e	; 0x1c5e <__addsf3>
     52a:	cb 50       	subi	r28, 0x0B	; 11
     52c:	df 4f       	sbci	r29, 0xFF	; 255
     52e:	68 83       	st	Y, r22
     530:	79 83       	std	Y+1, r23	; 0x01
     532:	8a 83       	std	Y+2, r24	; 0x02
     534:	9b 83       	std	Y+3, r25	; 0x03
     536:	c5 5f       	subi	r28, 0xF5	; 245
     538:	d0 40       	sbci	r29, 0x00	; 0
     53a:	2d ec       	ldi	r18, 0xCD	; 205
     53c:	3c ec       	ldi	r19, 0xCC	; 204
     53e:	4c ec       	ldi	r20, 0xCC	; 204
     540:	5d e3       	ldi	r21, 0x3D	; 61
     542:	c3 01       	movw	r24, r6
     544:	b2 01       	movw	r22, r4
     546:	0e 94 88 10 	call	0x2110	; 0x2110 <__mulsf3>
     54a:	2b 01       	movw	r4, r22
     54c:	3c 01       	movw	r6, r24
     54e:	c0 cf       	rjmp	.-128    	; 0x4d0 <__stack+0x71>
     550:	cb 50       	subi	r28, 0x0B	; 11
     552:	df 4f       	sbci	r29, 0xFF	; 255
     554:	28 81       	ld	r18, Y
     556:	39 81       	ldd	r19, Y+1	; 0x01
     558:	4a 81       	ldd	r20, Y+2	; 0x02
     55a:	5b 81       	ldd	r21, Y+3	; 0x03
     55c:	c5 5f       	subi	r28, 0xF5	; 245
     55e:	d0 40       	sbci	r29, 0x00	; 0
     560:	c5 01       	movw	r24, r10
     562:	b4 01       	movw	r22, r8
     564:	0e 94 2f 0e 	call	0x1c5e	; 0x1c5e <__addsf3>
     568:	4b 01       	movw	r8, r22
     56a:	5c 01       	movw	r10, r24
     56c:	f1 e0       	ldi	r31, 0x01	; 1
     56e:	cf 16       	cp	r12, r31
     570:	d1 04       	cpc	r13, r1
     572:	31 f4       	brne	.+12     	; 0x580 <__stack+0x121>
     574:	b7 fa       	bst	r11, 7
     576:	b0 94       	com	r11
     578:	b7 f8       	bld	r11, 7
     57a:	b0 94       	com	r11
     57c:	c1 2c       	mov	r12, r1
     57e:	d1 2c       	mov	r13, r1
     580:	b5 01       	movw	r22, r10
     582:	a4 01       	movw	r20, r8
     584:	ce 01       	movw	r24, r28
     586:	01 96       	adiw	r24, 0x01	; 1
     588:	0e 94 9e 05 	call	0xb3c	; 0xb3c <_Z10stack_pushP5Stackf>
     58c:	36 cf       	rjmp	.-404    	; 0x3fa <_Z19evaluate_expressionPKc+0x5c>
     58e:	8e e2       	ldi	r24, 0x2E	; 46
     590:	98 12       	cpse	r9, r24
     592:	71 c0       	rjmp	.+226    	; 0x676 <__stack+0x217>
     594:	0f 2e       	mov	r0, r31
     596:	fd ec       	ldi	r31, 0xCD	; 205
     598:	8f 2e       	mov	r8, r31
     59a:	fc ec       	ldi	r31, 0xCC	; 204
     59c:	9f 2e       	mov	r9, r31
     59e:	a9 2c       	mov	r10, r9
     5a0:	fd e3       	ldi	r31, 0x3D	; 61
     5a2:	bf 2e       	mov	r11, r31
     5a4:	f0 2d       	mov	r31, r0
     5a6:	41 2c       	mov	r4, r1
     5a8:	51 2c       	mov	r5, r1
     5aa:	32 01       	movw	r6, r4
     5ac:	d7 01       	movw	r26, r14
     5ae:	8c 91       	ld	r24, X
     5b0:	0e 94 8e 05 	call	0xb1c	; 0xb1c <_Z8is_digitc>
     5b4:	89 2b       	or	r24, r25
     5b6:	29 f0       	breq	.+10     	; 0x5c2 <__stack+0x163>
     5b8:	f7 01       	movw	r30, r14
     5ba:	80 81       	ld	r24, Z
     5bc:	81 11       	cpse	r24, r1
     5be:	03 c0       	rjmp	.+6      	; 0x5c6 <__stack+0x167>
     5c0:	03 c0       	rjmp	.+6      	; 0x5c8 <__stack+0x169>
     5c2:	80 e0       	ldi	r24, 0x00	; 0
     5c4:	01 c0       	rjmp	.+2      	; 0x5c8 <__stack+0x169>
     5c6:	81 e0       	ldi	r24, 0x01	; 1
     5c8:	88 23       	and	r24, r24
     5ca:	19 f1       	breq	.+70     	; 0x612 <__stack+0x1b3>
     5cc:	d7 01       	movw	r26, r14
     5ce:	6d 91       	ld	r22, X+
     5d0:	7d 01       	movw	r14, r26
     5d2:	70 e0       	ldi	r23, 0x00	; 0
     5d4:	60 53       	subi	r22, 0x30	; 48
     5d6:	71 09       	sbc	r23, r1
     5d8:	07 2e       	mov	r0, r23
     5da:	00 0c       	add	r0, r0
     5dc:	88 0b       	sbc	r24, r24
     5de:	99 0b       	sbc	r25, r25
     5e0:	0e 94 85 0f 	call	0x1f0a	; 0x1f0a <__floatsisf>
     5e4:	a5 01       	movw	r20, r10
     5e6:	94 01       	movw	r18, r8
     5e8:	0e 94 88 10 	call	0x2110	; 0x2110 <__mulsf3>
     5ec:	9b 01       	movw	r18, r22
     5ee:	ac 01       	movw	r20, r24
     5f0:	c3 01       	movw	r24, r6
     5f2:	b2 01       	movw	r22, r4
     5f4:	0e 94 2f 0e 	call	0x1c5e	; 0x1c5e <__addsf3>
     5f8:	2b 01       	movw	r4, r22
     5fa:	3c 01       	movw	r6, r24
     5fc:	2d ec       	ldi	r18, 0xCD	; 205
     5fe:	3c ec       	ldi	r19, 0xCC	; 204
     600:	4c ec       	ldi	r20, 0xCC	; 204
     602:	5d e3       	ldi	r21, 0x3D	; 61
     604:	c5 01       	movw	r24, r10
     606:	b4 01       	movw	r22, r8
     608:	0e 94 88 10 	call	0x2110	; 0x2110 <__mulsf3>
     60c:	4b 01       	movw	r8, r22
     60e:	5c 01       	movw	r10, r24
     610:	cd cf       	rjmp	.-102    	; 0x5ac <__stack+0x14d>
     612:	a3 01       	movw	r20, r6
     614:	92 01       	movw	r18, r4
     616:	c7 50       	subi	r28, 0x07	; 7
     618:	df 4f       	sbci	r29, 0xFF	; 255
     61a:	68 81       	ld	r22, Y
     61c:	79 81       	ldd	r23, Y+1	; 0x01
     61e:	8a 81       	ldd	r24, Y+2	; 0x02
     620:	9b 81       	ldd	r25, Y+3	; 0x03
     622:	c9 5f       	subi	r28, 0xF9	; 249
     624:	d0 40       	sbci	r29, 0x00	; 0
     626:	0e 94 2f 0e 	call	0x1c5e	; 0x1c5e <__addsf3>
     62a:	c7 50       	subi	r28, 0x07	; 7
     62c:	df 4f       	sbci	r29, 0xFF	; 255
     62e:	68 83       	st	Y, r22
     630:	79 83       	std	Y+1, r23	; 0x01
     632:	8a 83       	std	Y+2, r24	; 0x02
     634:	9b 83       	std	Y+3, r25	; 0x03
     636:	c9 5f       	subi	r28, 0xF9	; 249
     638:	d0 40       	sbci	r29, 0x00	; 0
     63a:	b1 e0       	ldi	r27, 0x01	; 1
     63c:	cb 16       	cp	r12, r27
     63e:	d1 04       	cpc	r13, r1
     640:	69 f4       	brne	.+26     	; 0x65c <__stack+0x1fd>
     642:	dc 01       	movw	r26, r24
     644:	cb 01       	movw	r24, r22
     646:	b0 58       	subi	r27, 0x80	; 128
     648:	c7 50       	subi	r28, 0x07	; 7
     64a:	df 4f       	sbci	r29, 0xFF	; 255
     64c:	88 83       	st	Y, r24
     64e:	99 83       	std	Y+1, r25	; 0x01
     650:	aa 83       	std	Y+2, r26	; 0x02
     652:	bb 83       	std	Y+3, r27	; 0x03
     654:	c9 5f       	subi	r28, 0xF9	; 249
     656:	d0 40       	sbci	r29, 0x00	; 0
     658:	c1 2c       	mov	r12, r1
     65a:	d1 2c       	mov	r13, r1
     65c:	c7 50       	subi	r28, 0x07	; 7
     65e:	df 4f       	sbci	r29, 0xFF	; 255
     660:	48 81       	ld	r20, Y
     662:	59 81       	ldd	r21, Y+1	; 0x01
     664:	6a 81       	ldd	r22, Y+2	; 0x02
     666:	7b 81       	ldd	r23, Y+3	; 0x03
     668:	c9 5f       	subi	r28, 0xF9	; 249
     66a:	d0 40       	sbci	r29, 0x00	; 0
     66c:	ce 01       	movw	r24, r28
     66e:	01 96       	adiw	r24, 0x01	; 1
     670:	0e 94 9e 05 	call	0xb3c	; 0xb3c <_Z10stack_pushP5Stackf>
     674:	c2 ce       	rjmp	.-636    	; 0x3fa <_Z19evaluate_expressionPKc+0x5c>
     676:	ce 01       	movw	r24, r28
     678:	85 58       	subi	r24, 0x85	; 133
     67a:	9f 4f       	sbci	r25, 0xFF	; 255
     67c:	0e 94 b6 05 	call	0xb6c	; 0xb6c <_Z9stack_topPK5Stack>
     680:	20 e0       	ldi	r18, 0x00	; 0
     682:	30 e0       	ldi	r19, 0x00	; 0
     684:	a9 01       	movw	r20, r18
     686:	0e 94 83 10 	call	0x2106	; 0x2106 <__gesf2>
     68a:	88 23       	and	r24, r24
     68c:	9c f0       	brlt	.+38     	; 0x6b4 <__stack+0x255>
     68e:	ce 01       	movw	r24, r28
     690:	85 58       	subi	r24, 0x85	; 133
     692:	9f 4f       	sbci	r25, 0xFF	; 255
     694:	0e 94 b6 05 	call	0xb6c	; 0xb6c <_Z9stack_topPK5Stack>
     698:	0e 94 4e 0f 	call	0x1e9c	; 0x1e9c <__fixunssfsi>
     69c:	86 2f       	mov	r24, r22
     69e:	0e 94 af 00 	call	0x15e	; 0x15e <_Z10precedencec>
     6a2:	8c 01       	movw	r16, r24
     6a4:	89 2d       	mov	r24, r9
     6a6:	0e 94 af 00 	call	0x15e	; 0x15e <_Z10precedencec>
     6aa:	08 17       	cp	r16, r24
     6ac:	19 07       	cpc	r17, r25
     6ae:	24 f0       	brlt	.+8      	; 0x6b8 <__stack+0x259>
     6b0:	81 e0       	ldi	r24, 0x01	; 1
     6b2:	03 c0       	rjmp	.+6      	; 0x6ba <__stack+0x25b>
     6b4:	80 e0       	ldi	r24, 0x00	; 0
     6b6:	01 c0       	rjmp	.+2      	; 0x6ba <__stack+0x25b>
     6b8:	80 e0       	ldi	r24, 0x00	; 0
     6ba:	88 23       	and	r24, r24
     6bc:	e9 f0       	breq	.+58     	; 0x6f8 <__stack+0x299>
     6be:	ce 01       	movw	r24, r28
     6c0:	85 58       	subi	r24, 0x85	; 133
     6c2:	9f 4f       	sbci	r25, 0xFF	; 255
     6c4:	0e 94 cd 05 	call	0xb9a	; 0xb9a <_Z9stack_popP5Stack>
     6c8:	0e 94 4e 0f 	call	0x1e9c	; 0x1e9c <__fixunssfsi>
     6cc:	06 2f       	mov	r16, r22
     6ce:	ce 01       	movw	r24, r28
     6d0:	01 96       	adiw	r24, 0x01	; 1
     6d2:	0e 94 cd 05 	call	0xb9a	; 0xb9a <_Z9stack_popP5Stack>
     6d6:	2b 01       	movw	r4, r22
     6d8:	3c 01       	movw	r6, r24
     6da:	ce 01       	movw	r24, r28
     6dc:	01 96       	adiw	r24, 0x01	; 1
     6de:	0e 94 cd 05 	call	0xb9a	; 0xb9a <_Z9stack_popP5Stack>
     6e2:	a3 01       	movw	r20, r6
     6e4:	92 01       	movw	r18, r4
     6e6:	0e 94 a2 01 	call	0x344	; 0x344 <_Z19performCalculationsddc>
     6ea:	ab 01       	movw	r20, r22
     6ec:	bc 01       	movw	r22, r24
     6ee:	ce 01       	movw	r24, r28
     6f0:	01 96       	adiw	r24, 0x01	; 1
     6f2:	0e 94 9e 05 	call	0xb3c	; 0xb3c <_Z10stack_pushP5Stackf>
     6f6:	bf cf       	rjmp	.-130    	; 0x676 <__stack+0x217>
     6f8:	9e e5       	ldi	r25, 0x5E	; 94
     6fa:	99 12       	cpse	r9, r25
     6fc:	08 c0       	rjmp	.+16     	; 0x70e <__stack+0x2af>
     6fe:	40 e0       	ldi	r20, 0x00	; 0
     700:	50 e0       	ldi	r21, 0x00	; 0
     702:	60 e8       	ldi	r22, 0x80	; 128
     704:	7f e3       	ldi	r23, 0x3F	; 63
     706:	ce 01       	movw	r24, r28
     708:	01 96       	adiw	r24, 0x01	; 1
     70a:	0e 94 9e 05 	call	0xb3c	; 0xb3c <_Z10stack_pushP5Stackf>
     70e:	a5 e2       	ldi	r26, 0x25	; 37
     710:	9a 12       	cpse	r9, r26
     712:	08 c0       	rjmp	.+16     	; 0x724 <__stack+0x2c5>
     714:	40 e0       	ldi	r20, 0x00	; 0
     716:	50 e0       	ldi	r21, 0x00	; 0
     718:	60 e8       	ldi	r22, 0x80	; 128
     71a:	7f e3       	ldi	r23, 0x3F	; 63
     71c:	ce 01       	movw	r24, r28
     71e:	01 96       	adiw	r24, 0x01	; 1
     720:	0e 94 9e 05 	call	0xb3c	; 0xb3c <_Z10stack_pushP5Stackf>
     724:	69 2d       	mov	r22, r9
     726:	70 e0       	ldi	r23, 0x00	; 0
     728:	80 e0       	ldi	r24, 0x00	; 0
     72a:	90 e0       	ldi	r25, 0x00	; 0
     72c:	0e 94 83 0f 	call	0x1f06	; 0x1f06 <__floatunsisf>
     730:	ab 01       	movw	r20, r22
     732:	bc 01       	movw	r22, r24
     734:	ce 01       	movw	r24, r28
     736:	85 58       	subi	r24, 0x85	; 133
     738:	9f 4f       	sbci	r25, 0xFF	; 255
     73a:	0e 94 9e 05 	call	0xb3c	; 0xb3c <_Z10stack_pushP5Stackf>
     73e:	f5 01       	movw	r30, r10
     740:	81 81       	ldd	r24, Z+1	; 0x01
     742:	8d 32       	cpi	r24, 0x2D	; 45
     744:	41 f4       	brne	.+16     	; 0x756 <__stack+0x2f7>
     746:	75 01       	movw	r14, r10
     748:	f2 e0       	ldi	r31, 0x02	; 2
     74a:	ef 0e       	add	r14, r31
     74c:	f1 1c       	adc	r15, r1
     74e:	cc 24       	eor	r12, r12
     750:	c3 94       	inc	r12
     752:	d1 2c       	mov	r13, r1
     754:	52 ce       	rjmp	.-860    	; 0x3fa <_Z19evaluate_expressionPKc+0x5c>
     756:	8b 32       	cpi	r24, 0x2B	; 43
     758:	29 f4       	brne	.+10     	; 0x764 <__stack+0x305>
     75a:	75 01       	movw	r14, r10
     75c:	82 e0       	ldi	r24, 0x02	; 2
     75e:	e8 0e       	add	r14, r24
     760:	f1 1c       	adc	r15, r1
     762:	4b ce       	rjmp	.-874    	; 0x3fa <_Z19evaluate_expressionPKc+0x5c>
     764:	0e 94 8e 05 	call	0xb1c	; 0xb1c <_Z8is_digitc>
     768:	89 2b       	or	r24, r25
     76a:	09 f0       	breq	.+2      	; 0x76e <__stack+0x30f>
     76c:	46 ce       	rjmp	.-884    	; 0x3fa <_Z19evaluate_expressionPKc+0x5c>
     76e:	d5 01       	movw	r26, r10
     770:	11 96       	adiw	r26, 0x01	; 1
     772:	8c 91       	ld	r24, X
     774:	8f 32       	cpi	r24, 0x2F	; 47
     776:	91 f1       	breq	.+100    	; 0x7dc <__stack+0x37d>
     778:	8a 32       	cpi	r24, 0x2A	; 42
     77a:	09 f0       	breq	.+2      	; 0x77e <__stack+0x31f>
     77c:	3e ce       	rjmp	.-900    	; 0x3fa <_Z19evaluate_expressionPKc+0x5c>
     77e:	33 c0       	rjmp	.+102    	; 0x7e6 <__stack+0x387>
     780:	ce 01       	movw	r24, r28
     782:	85 58       	subi	r24, 0x85	; 133
     784:	9f 4f       	sbci	r25, 0xFF	; 255
     786:	0e 94 b6 05 	call	0xb6c	; 0xb6c <_Z9stack_topPK5Stack>
     78a:	20 e0       	ldi	r18, 0x00	; 0
     78c:	30 e0       	ldi	r19, 0x00	; 0
     78e:	a9 01       	movw	r20, r18
     790:	0e 94 83 10 	call	0x2106	; 0x2106 <__gesf2>
     794:	18 16       	cp	r1, r24
     796:	ec f4       	brge	.+58     	; 0x7d2 <__stack+0x373>
     798:	ce 01       	movw	r24, r28
     79a:	85 58       	subi	r24, 0x85	; 133
     79c:	9f 4f       	sbci	r25, 0xFF	; 255
     79e:	0e 94 cd 05 	call	0xb9a	; 0xb9a <_Z9stack_popP5Stack>
     7a2:	0e 94 4e 0f 	call	0x1e9c	; 0x1e9c <__fixunssfsi>
     7a6:	06 2f       	mov	r16, r22
     7a8:	ce 01       	movw	r24, r28
     7aa:	01 96       	adiw	r24, 0x01	; 1
     7ac:	0e 94 cd 05 	call	0xb9a	; 0xb9a <_Z9stack_popP5Stack>
     7b0:	6b 01       	movw	r12, r22
     7b2:	7c 01       	movw	r14, r24
     7b4:	ce 01       	movw	r24, r28
     7b6:	01 96       	adiw	r24, 0x01	; 1
     7b8:	0e 94 cd 05 	call	0xb9a	; 0xb9a <_Z9stack_popP5Stack>
     7bc:	a7 01       	movw	r20, r14
     7be:	96 01       	movw	r18, r12
     7c0:	0e 94 a2 01 	call	0x344	; 0x344 <_Z19performCalculationsddc>
     7c4:	ab 01       	movw	r20, r22
     7c6:	bc 01       	movw	r22, r24
     7c8:	ce 01       	movw	r24, r28
     7ca:	01 96       	adiw	r24, 0x01	; 1
     7cc:	0e 94 9e 05 	call	0xb3c	; 0xb3c <_Z10stack_pushP5Stackf>
     7d0:	d7 cf       	rjmp	.-82     	; 0x780 <__stack+0x321>
     7d2:	ce 01       	movw	r24, r28
     7d4:	01 96       	adiw	r24, 0x01	; 1
     7d6:	0e 94 b6 05 	call	0xb6c	; 0xb6c <_Z9stack_topPK5Stack>
     7da:	09 c0       	rjmp	.+18     	; 0x7ee <__stack+0x38f>
     7dc:	60 e0       	ldi	r22, 0x00	; 0
     7de:	70 e0       	ldi	r23, 0x00	; 0
     7e0:	80 e8       	ldi	r24, 0x80	; 128
     7e2:	9f eb       	ldi	r25, 0xBF	; 191
     7e4:	04 c0       	rjmp	.+8      	; 0x7ee <__stack+0x38f>
     7e6:	60 e0       	ldi	r22, 0x00	; 0
     7e8:	70 e0       	ldi	r23, 0x00	; 0
     7ea:	80 e8       	ldi	r24, 0x80	; 128
     7ec:	9f eb       	ldi	r25, 0xBF	; 191
     7ee:	c4 50       	subi	r28, 0x04	; 4
     7f0:	df 4f       	sbci	r29, 0xFF	; 255
     7f2:	0f b6       	in	r0, 0x3f	; 63
     7f4:	f8 94       	cli
     7f6:	de bf       	out	0x3e, r29	; 62
     7f8:	0f be       	out	0x3f, r0	; 63
     7fa:	cd bf       	out	0x3d, r28	; 61
     7fc:	df 91       	pop	r29
     7fe:	cf 91       	pop	r28
     800:	1f 91       	pop	r17
     802:	0f 91       	pop	r16
     804:	ff 90       	pop	r15
     806:	ef 90       	pop	r14
     808:	df 90       	pop	r13
     80a:	cf 90       	pop	r12
     80c:	bf 90       	pop	r11
     80e:	af 90       	pop	r10
     810:	9f 90       	pop	r9
     812:	8f 90       	pop	r8
     814:	7f 90       	pop	r7
     816:	6f 90       	pop	r6
     818:	5f 90       	pop	r5
     81a:	4f 90       	pop	r4
     81c:	08 95       	ret

0000081e <_Z22checkErrorCalculationsPKc>:

int checkErrorCalculations (const char* expression)
{
     81e:	ef 92       	push	r14
     820:	ff 92       	push	r15
     822:	1f 93       	push	r17
     824:	cf 93       	push	r28
     826:	df 93       	push	r29
     828:	7c 01       	movw	r14, r24
     82a:	01 c0       	rjmp	.+2      	; 0x82e <_Z22checkErrorCalculationsPKc+0x10>
     82c:	7e 01       	movw	r14, r28
	char token;
	double result = 0;
	int flag = 0;
	
	while((token = *expression++) != '\0')
     82e:	e7 01       	movw	r28, r14
     830:	21 96       	adiw	r28, 0x01	; 1
     832:	f7 01       	movw	r30, r14
     834:	10 81       	ld	r17, Z
     836:	11 23       	and	r17, r17
     838:	09 f4       	brne	.+2      	; 0x83c <_Z22checkErrorCalculationsPKc+0x1e>
     83a:	85 c0       	rjmp	.+266    	; 0x946 <_Z22checkErrorCalculationsPKc+0x128>
	{
		if(token == ' ')
     83c:	10 32       	cpi	r17, 0x20	; 32
     83e:	b1 f3       	breq	.-20     	; 0x82c <_Z22checkErrorCalculationsPKc+0xe>
		{
			continue;
		}
		if(is_digit(token))
     840:	81 2f       	mov	r24, r17
     842:	0e 94 8e 05 	call	0xb1c	; 0xb1c <_Z8is_digitc>
     846:	89 2b       	or	r24, r25
     848:	29 f1       	breq	.+74     	; 0x894 <_Z22checkErrorCalculationsPKc+0x76>
		{
			double value = token - '0'; // Chuy?n d?i ký t? s? don thành giá tr? s? nguyên
			//expression++;
			
			while(*expression && is_digit(*expression))
     84a:	88 81       	ld	r24, Y
     84c:	88 23       	and	r24, r24
     84e:	31 f0       	breq	.+12     	; 0x85c <_Z22checkErrorCalculationsPKc+0x3e>
     850:	0e 94 8e 05 	call	0xb1c	; 0xb1c <_Z8is_digitc>
     854:	89 2b       	or	r24, r25
     856:	21 f0       	breq	.+8      	; 0x860 <_Z22checkErrorCalculationsPKc+0x42>
     858:	11 e0       	ldi	r17, 0x01	; 1
     85a:	03 c0       	rjmp	.+6      	; 0x862 <_Z22checkErrorCalculationsPKc+0x44>
     85c:	10 e0       	ldi	r17, 0x00	; 0
     85e:	01 c0       	rjmp	.+2      	; 0x862 <_Z22checkErrorCalculationsPKc+0x44>
     860:	10 e0       	ldi	r17, 0x00	; 0
     862:	11 23       	and	r17, r17
     864:	11 f0       	breq	.+4      	; 0x86a <_Z22checkErrorCalculationsPKc+0x4c>
			{
				value = value * 10 + (*expression++ - '0'); // Ð?c các ch? s? ti?p theo và c?p nh?t giá tr?
     866:	21 96       	adiw	r28, 0x01	; 1
		if(is_digit(token))
		{
			double value = token - '0'; // Chuy?n d?i ký t? s? don thành giá tr? s? nguyên
			//expression++;
			
			while(*expression && is_digit(*expression))
     868:	f0 cf       	rjmp	.-32     	; 0x84a <_Z22checkErrorCalculationsPKc+0x2c>
			{
				value = value * 10 + (*expression++ - '0'); // Ð?c các ch? s? ti?p theo và c?p nh?t giá tr?
			}
			if (*expression && *expression == '.') {
     86a:	88 81       	ld	r24, Y
     86c:	8e 32       	cpi	r24, 0x2E	; 46
     86e:	f1 f6       	brne	.-68     	; 0x82c <_Z22checkErrorCalculationsPKc+0xe>
				expression++;
     870:	21 96       	adiw	r28, 0x01	; 1
				
				double decimal = 0.0;
				double decimal_factor = 0.1;
				
				while(is_digit(*expression) && *expression) {
     872:	88 81       	ld	r24, Y
     874:	0e 94 8e 05 	call	0xb1c	; 0xb1c <_Z8is_digitc>
     878:	89 2b       	or	r24, r25
     87a:	29 f0       	breq	.+10     	; 0x886 <_Z22checkErrorCalculationsPKc+0x68>
     87c:	88 81       	ld	r24, Y
     87e:	81 11       	cpse	r24, r1
     880:	04 c0       	rjmp	.+8      	; 0x88a <_Z22checkErrorCalculationsPKc+0x6c>
     882:	81 2f       	mov	r24, r17
     884:	03 c0       	rjmp	.+6      	; 0x88c <_Z22checkErrorCalculationsPKc+0x6e>
     886:	81 2f       	mov	r24, r17
     888:	01 c0       	rjmp	.+2      	; 0x88c <_Z22checkErrorCalculationsPKc+0x6e>
     88a:	81 e0       	ldi	r24, 0x01	; 1
     88c:	88 23       	and	r24, r24
     88e:	71 f2       	breq	.-100    	; 0x82c <_Z22checkErrorCalculationsPKc+0xe>
					decimal += (*expression - '0') * decimal_factor;
					decimal_factor *= 0.1;
					expression++;
     890:	21 96       	adiw	r28, 0x01	; 1
				expression++;
				
				double decimal = 0.0;
				double decimal_factor = 0.1;
				
				while(is_digit(*expression) && *expression) {
     892:	ef cf       	rjmp	.-34     	; 0x872 <_Z22checkErrorCalculationsPKc+0x54>
				value *= -1;
				flag = 0;
			}
			
		}
		else if (token == '.')
     894:	1e 32       	cpi	r17, 0x2E	; 46
     896:	09 f5       	brne	.+66     	; 0x8da <_Z22checkErrorCalculationsPKc+0xbc>
		{
			if (*expression && !is_digit(*expression))
     898:	f7 01       	movw	r30, r14
     89a:	81 81       	ldd	r24, Z+1	; 0x01
     89c:	88 23       	and	r24, r24
     89e:	31 f0       	breq	.+12     	; 0x8ac <_Z22checkErrorCalculationsPKc+0x8e>
     8a0:	0e 94 8e 05 	call	0xb1c	; 0xb1c <_Z8is_digitc>
     8a4:	89 2b       	or	r24, r25
     8a6:	21 f4       	brne	.+8      	; 0x8b0 <_Z22checkErrorCalculationsPKc+0x92>
     8a8:	11 e0       	ldi	r17, 0x01	; 1
     8aa:	03 c0       	rjmp	.+6      	; 0x8b2 <_Z22checkErrorCalculationsPKc+0x94>
     8ac:	10 e0       	ldi	r17, 0x00	; 0
     8ae:	01 c0       	rjmp	.+2      	; 0x8b2 <_Z22checkErrorCalculationsPKc+0x94>
     8b0:	10 e0       	ldi	r17, 0x00	; 0
     8b2:	11 11       	cpse	r17, r1
     8b4:	4b c0       	rjmp	.+150    	; 0x94c <_Z22checkErrorCalculationsPKc+0x12e>
				return 1;
			}
			double decimal = 0.0;
			double decimal_factor = 0.1;
			
			while(is_digit(*expression) && *expression) {
     8b6:	88 81       	ld	r24, Y
     8b8:	0e 94 8e 05 	call	0xb1c	; 0xb1c <_Z8is_digitc>
     8bc:	89 2b       	or	r24, r25
     8be:	29 f0       	breq	.+10     	; 0x8ca <_Z22checkErrorCalculationsPKc+0xac>
     8c0:	88 81       	ld	r24, Y
     8c2:	81 11       	cpse	r24, r1
     8c4:	04 c0       	rjmp	.+8      	; 0x8ce <_Z22checkErrorCalculationsPKc+0xb0>
     8c6:	81 2f       	mov	r24, r17
     8c8:	03 c0       	rjmp	.+6      	; 0x8d0 <_Z22checkErrorCalculationsPKc+0xb2>
     8ca:	81 2f       	mov	r24, r17
     8cc:	01 c0       	rjmp	.+2      	; 0x8d0 <_Z22checkErrorCalculationsPKc+0xb2>
     8ce:	81 e0       	ldi	r24, 0x01	; 1
     8d0:	88 23       	and	r24, r24
     8d2:	09 f4       	brne	.+2      	; 0x8d6 <_Z22checkErrorCalculationsPKc+0xb8>
     8d4:	ab cf       	rjmp	.-170    	; 0x82c <_Z22checkErrorCalculationsPKc+0xe>
				decimal += (*expression - '0') * decimal_factor;
				decimal_factor *= 0.1;
				expression++;
     8d6:	21 96       	adiw	r28, 0x01	; 1
				return 1;
			}
			double decimal = 0.0;
			double decimal_factor = 0.1;
			
			while(is_digit(*expression) && *expression) {
     8d8:	ee cf       	rjmp	.-36     	; 0x8b6 <_Z22checkErrorCalculationsPKc+0x98>
				result *= -1;
				flag = 0;
			}
		}
		
		else if (*expression == '\0' && token != '%')
     8da:	f7 01       	movw	r30, r14
     8dc:	81 81       	ldd	r24, Z+1	; 0x01
     8de:	81 11       	cpse	r24, r1
     8e0:	02 c0       	rjmp	.+4      	; 0x8e6 <_Z22checkErrorCalculationsPKc+0xc8>
     8e2:	15 32       	cpi	r17, 0x25	; 37
     8e4:	b1 f5       	brne	.+108    	; 0x952 <_Z22checkErrorCalculationsPKc+0x134>
		{
			return 1;
		}
		
		else if (token == '%')
     8e6:	15 32       	cpi	r17, 0x25	; 37
     8e8:	89 f4       	brne	.+34     	; 0x90c <_Z22checkErrorCalculationsPKc+0xee>
		{
			if (is_digit(*expression) || *expression == '.')
     8ea:	0e 94 8e 05 	call	0xb1c	; 0xb1c <_Z8is_digitc>
     8ee:	89 2b       	or	r24, r25
     8f0:	31 f4       	brne	.+12     	; 0x8fe <_Z22checkErrorCalculationsPKc+0xe0>
     8f2:	f7 01       	movw	r30, r14
     8f4:	81 81       	ldd	r24, Z+1	; 0x01
     8f6:	8e 32       	cpi	r24, 0x2E	; 46
     8f8:	21 f4       	brne	.+8      	; 0x902 <_Z22checkErrorCalculationsPKc+0xe4>
     8fa:	81 e0       	ldi	r24, 0x01	; 1
     8fc:	03 c0       	rjmp	.+6      	; 0x904 <_Z22checkErrorCalculationsPKc+0xe6>
     8fe:	81 e0       	ldi	r24, 0x01	; 1
     900:	01 c0       	rjmp	.+2      	; 0x904 <_Z22checkErrorCalculationsPKc+0xe6>
     902:	80 e0       	ldi	r24, 0x00	; 0
     904:	88 23       	and	r24, r24
     906:	09 f4       	brne	.+2      	; 0x90a <_Z22checkErrorCalculationsPKc+0xec>
     908:	91 cf       	rjmp	.-222    	; 0x82c <_Z22checkErrorCalculationsPKc+0xe>
     90a:	26 c0       	rjmp	.+76     	; 0x958 <_Z22checkErrorCalculationsPKc+0x13a>
				return 1;
			}
			continue;
		}
		
		else if (token == '^') {
     90c:	1e 35       	cpi	r17, 0x5E	; 94
     90e:	59 f4       	brne	.+22     	; 0x926 <_Z22checkErrorCalculationsPKc+0x108>
			if (*expression && (*expression == '-' || *expression == '*' || *expression == '/'))
     910:	88 23       	and	r24, r24
     912:	09 f4       	brne	.+2      	; 0x916 <_Z22checkErrorCalculationsPKc+0xf8>
     914:	8b cf       	rjmp	.-234    	; 0x82c <_Z22checkErrorCalculationsPKc+0xe>
     916:	8d 32       	cpi	r24, 0x2D	; 45
     918:	11 f1       	breq	.+68     	; 0x95e <_Z22checkErrorCalculationsPKc+0x140>
     91a:	8a 32       	cpi	r24, 0x2A	; 42
     91c:	19 f1       	breq	.+70     	; 0x964 <_Z22checkErrorCalculationsPKc+0x146>
     91e:	8f 32       	cpi	r24, 0x2F	; 47
     920:	09 f0       	breq	.+2      	; 0x924 <_Z22checkErrorCalculationsPKc+0x106>
     922:	84 cf       	rjmp	.-248    	; 0x82c <_Z22checkErrorCalculationsPKc+0xe>
     924:	22 c0       	rjmp	.+68     	; 0x96a <_Z22checkErrorCalculationsPKc+0x14c>
			{
				return 1;
			}
			continue;
		}
		else if (token == '-' || token == '+')
     926:	1d 32       	cpi	r17, 0x2D	; 45
     928:	19 f0       	breq	.+6      	; 0x930 <_Z22checkErrorCalculationsPKc+0x112>
     92a:	1b 32       	cpi	r17, 0x2B	; 43
     92c:	09 f0       	breq	.+2      	; 0x930 <_Z22checkErrorCalculationsPKc+0x112>
     92e:	7e cf       	rjmp	.-260    	; 0x82c <_Z22checkErrorCalculationsPKc+0xe>
		{
			if (*expression && (*expression == '/' || *expression == '*'))
     930:	88 23       	and	r24, r24
     932:	09 f4       	brne	.+2      	; 0x936 <_Z22checkErrorCalculationsPKc+0x118>
     934:	7b cf       	rjmp	.-266    	; 0x82c <_Z22checkErrorCalculationsPKc+0xe>
     936:	8f 32       	cpi	r24, 0x2F	; 47
     938:	d9 f0       	breq	.+54     	; 0x970 <_Z22checkErrorCalculationsPKc+0x152>
     93a:	8a 32       	cpi	r24, 0x2A	; 42
     93c:	09 f0       	breq	.+2      	; 0x940 <_Z22checkErrorCalculationsPKc+0x122>
     93e:	76 cf       	rjmp	.-276    	; 0x82c <_Z22checkErrorCalculationsPKc+0xe>
			{
				return 1;
     940:	81 e0       	ldi	r24, 0x01	; 1
     942:	90 e0       	ldi	r25, 0x00	; 0
     944:	17 c0       	rjmp	.+46     	; 0x974 <_Z22checkErrorCalculationsPKc+0x156>
			}
			continue;
		}
	}
	return 0;
     946:	80 e0       	ldi	r24, 0x00	; 0
     948:	90 e0       	ldi	r25, 0x00	; 0
     94a:	14 c0       	rjmp	.+40     	; 0x974 <_Z22checkErrorCalculationsPKc+0x156>
		}
		else if (token == '.')
		{
			if (*expression && !is_digit(*expression))
			{
				return 1;
     94c:	81 e0       	ldi	r24, 0x01	; 1
     94e:	90 e0       	ldi	r25, 0x00	; 0
     950:	11 c0       	rjmp	.+34     	; 0x974 <_Z22checkErrorCalculationsPKc+0x156>
			}
		}
		
		else if (*expression == '\0' && token != '%')
		{
			return 1;
     952:	81 e0       	ldi	r24, 0x01	; 1
     954:	90 e0       	ldi	r25, 0x00	; 0
     956:	0e c0       	rjmp	.+28     	; 0x974 <_Z22checkErrorCalculationsPKc+0x156>
		
		else if (token == '%')
		{
			if (is_digit(*expression) || *expression == '.')
			{
				return 1;
     958:	81 e0       	ldi	r24, 0x01	; 1
     95a:	90 e0       	ldi	r25, 0x00	; 0
     95c:	0b c0       	rjmp	.+22     	; 0x974 <_Z22checkErrorCalculationsPKc+0x156>
		}
		
		else if (token == '^') {
			if (*expression && (*expression == '-' || *expression == '*' || *expression == '/'))
			{
				return 1;
     95e:	81 e0       	ldi	r24, 0x01	; 1
     960:	90 e0       	ldi	r25, 0x00	; 0
     962:	08 c0       	rjmp	.+16     	; 0x974 <_Z22checkErrorCalculationsPKc+0x156>
     964:	81 e0       	ldi	r24, 0x01	; 1
     966:	90 e0       	ldi	r25, 0x00	; 0
     968:	05 c0       	rjmp	.+10     	; 0x974 <_Z22checkErrorCalculationsPKc+0x156>
     96a:	81 e0       	ldi	r24, 0x01	; 1
     96c:	90 e0       	ldi	r25, 0x00	; 0
     96e:	02 c0       	rjmp	.+4      	; 0x974 <_Z22checkErrorCalculationsPKc+0x156>
		}
		else if (token == '-' || token == '+')
		{
			if (*expression && (*expression == '/' || *expression == '*'))
			{
				return 1;
     970:	81 e0       	ldi	r24, 0x01	; 1
     972:	90 e0       	ldi	r25, 0x00	; 0
			}
			continue;
		}
	}
	return 0;
}
     974:	df 91       	pop	r29
     976:	cf 91       	pop	r28
     978:	1f 91       	pop	r17
     97a:	ff 90       	pop	r15
     97c:	ef 90       	pop	r14
     97e:	08 95       	ret

00000980 <_Z11LCD_commandh>:
#include "LCD.h"
#include <avr/io.h>
#include <util/delay.h>

void LCD_command(unsigned char command) {
	LCD_DATA_PORT = command;
     980:	85 bb       	out	0x15, r24	; 21
	LCD_CONTROL_PORT &= ~(1 << LCD_RS);//RS xuong 0 de ghi lenh
     982:	88 b3       	in	r24, 0x18	; 24
     984:	8b 7f       	andi	r24, 0xFB	; 251
     986:	88 bb       	out	0x18, r24	; 24
	LCD_CONTROL_PORT &= ~(1 << LCD_RW);//RW xuong 0 de ghi lenh
     988:	88 b3       	in	r24, 0x18	; 24
     98a:	8d 7f       	andi	r24, 0xFD	; 253
     98c:	88 bb       	out	0x18, r24	; 24
	//_delay_ms(1);
	//LCD_DATA_PORT = command;
	LCD_CONTROL_PORT |= (1 << LCD_E);
     98e:	88 b3       	in	r24, 0x18	; 24
     990:	81 60       	ori	r24, 0x01	; 1
     992:	88 bb       	out	0x18, r24	; 24
     994:	89 ef       	ldi	r24, 0xF9	; 249
     996:	90 e0       	ldi	r25, 0x00	; 0
     998:	01 97       	sbiw	r24, 0x01	; 1
     99a:	f1 f7       	brne	.-4      	; 0x998 <_Z11LCD_commandh+0x18>
     99c:	00 c0       	rjmp	.+0      	; 0x99e <_Z11LCD_commandh+0x1e>
     99e:	00 00       	nop
	_delay_ms(1);
	LCD_CONTROL_PORT &= ~(1 << LCD_E);
     9a0:	88 b3       	in	r24, 0x18	; 24
     9a2:	8e 7f       	andi	r24, 0xFE	; 254
     9a4:	88 bb       	out	0x18, r24	; 24
     9a6:	83 ef       	ldi	r24, 0xF3	; 243
     9a8:	91 e0       	ldi	r25, 0x01	; 1
     9aa:	01 97       	sbiw	r24, 0x01	; 1
     9ac:	f1 f7       	brne	.-4      	; 0x9aa <_Z11LCD_commandh+0x2a>
     9ae:	00 c0       	rjmp	.+0      	; 0x9b0 <_Z11LCD_commandh+0x30>
     9b0:	00 00       	nop
     9b2:	08 95       	ret

000009b4 <_Z8LCD_datah>:
	_delay_ms(2);
}

void LCD_data(unsigned char data) {
	LCD_DATA_PORT = data; //gui du lieu den cha
     9b4:	85 bb       	out	0x15, r24	; 21
	LCD_CONTROL_PORT |= (1 << LCD_RS); //  RS len 1 de ghi du lieu
     9b6:	88 b3       	in	r24, 0x18	; 24
     9b8:	84 60       	ori	r24, 0x04	; 4
     9ba:	88 bb       	out	0x18, r24	; 24
	LCD_CONTROL_PORT &= ~(1 << LCD_RW); //  chân RW lên 0 de ghi du lieu
     9bc:	88 b3       	in	r24, 0x18	; 24
     9be:	8d 7f       	andi	r24, 0xFD	; 253
     9c0:	88 bb       	out	0x18, r24	; 24
	//_delay_ms(1);
	//LCD_DATA_PORT = data; //gui du lieu den chan
	LCD_CONTROL_PORT |= (1 << LCD_E); // Kich hoat chân E
     9c2:	88 b3       	in	r24, 0x18	; 24
     9c4:	81 60       	ori	r24, 0x01	; 1
     9c6:	88 bb       	out	0x18, r24	; 24
     9c8:	89 ef       	ldi	r24, 0xF9	; 249
     9ca:	90 e0       	ldi	r25, 0x00	; 0
     9cc:	01 97       	sbiw	r24, 0x01	; 1
     9ce:	f1 f7       	brne	.-4      	; 0x9cc <_Z8LCD_datah+0x18>
     9d0:	00 c0       	rjmp	.+0      	; 0x9d2 <_Z8LCD_datah+0x1e>
     9d2:	00 00       	nop
	_delay_ms(1);
	LCD_CONTROL_PORT &= ~(1 << LCD_E); // tat chan E
     9d4:	88 b3       	in	r24, 0x18	; 24
     9d6:	8e 7f       	andi	r24, 0xFE	; 254
     9d8:	88 bb       	out	0x18, r24	; 24
     9da:	83 ef       	ldi	r24, 0xF3	; 243
     9dc:	91 e0       	ldi	r25, 0x01	; 1
     9de:	01 97       	sbiw	r24, 0x01	; 1
     9e0:	f1 f7       	brne	.-4      	; 0x9de <_Z8LCD_datah+0x2a>
     9e2:	00 c0       	rjmp	.+0      	; 0x9e4 <_Z8LCD_datah+0x30>
     9e4:	00 00       	nop
     9e6:	08 95       	ret

000009e8 <_Z8LCD_initv>:
	_delay_ms(2);
}

void LCD_init() {
	LCD_DATA_DDR = 0xFF; // output D
     9e8:	8f ef       	ldi	r24, 0xFF	; 255
     9ea:	84 bb       	out	0x14, r24	; 20
	LCD_CONTROL_DDR |= (1<<LCD_RS) | (1<<LCD_RW) | (1<<LCD_E);
     9ec:	87 b3       	in	r24, 0x17	; 23
     9ee:	87 60       	ori	r24, 0x07	; 7
     9f0:	87 bb       	out	0x17, r24	; 23
	
	LCD_command (0x38);	
     9f2:	88 e3       	ldi	r24, 0x38	; 56
     9f4:	0e 94 c0 04 	call	0x980	; 0x980 <_Z11LCD_commandh>
     9f8:	89 ef       	ldi	r24, 0xF9	; 249
     9fa:	90 e0       	ldi	r25, 0x00	; 0
     9fc:	01 97       	sbiw	r24, 0x01	; 1
     9fe:	f1 f7       	brne	.-4      	; 0x9fc <_Z8LCD_initv+0x14>
     a00:	00 c0       	rjmp	.+0      	; 0xa02 <_Z8LCD_initv+0x1a>
     a02:	00 00       	nop
	_delay_ms(1);
	LCD_command (0x0C);
     a04:	8c e0       	ldi	r24, 0x0C	; 12
     a06:	0e 94 c0 04 	call	0x980	; 0x980 <_Z11LCD_commandh>
     a0a:	89 ef       	ldi	r24, 0xF9	; 249
     a0c:	90 e0       	ldi	r25, 0x00	; 0
     a0e:	01 97       	sbiw	r24, 0x01	; 1
     a10:	f1 f7       	brne	.-4      	; 0xa0e <_Z8LCD_initv+0x26>
     a12:	00 c0       	rjmp	.+0      	; 0xa14 <_Z8LCD_initv+0x2c>
     a14:	00 00       	nop
// 	LCD_command (0x06);
// 	_delay_ms(3);	
	_delay_ms(1);
	LCD_command (0x01);
     a16:	81 e0       	ldi	r24, 0x01	; 1
     a18:	0e 94 c0 04 	call	0x980	; 0x980 <_Z11LCD_commandh>
     a1c:	89 ef       	ldi	r24, 0xF9	; 249
     a1e:	90 e0       	ldi	r25, 0x00	; 0
     a20:	01 97       	sbiw	r24, 0x01	; 1
     a22:	f1 f7       	brne	.-4      	; 0xa20 <_Z8LCD_initv+0x38>
     a24:	00 c0       	rjmp	.+0      	; 0xa26 <_Z8LCD_initv+0x3e>
     a26:	00 00       	nop
	_delay_ms(1);
	LCD_command (0x80);
     a28:	80 e8       	ldi	r24, 0x80	; 128
     a2a:	0e 94 c0 04 	call	0x980	; 0x980 <_Z11LCD_commandh>
     a2e:	89 ef       	ldi	r24, 0xF9	; 249
     a30:	90 e0       	ldi	r25, 0x00	; 0
     a32:	01 97       	sbiw	r24, 0x01	; 1
     a34:	f1 f7       	brne	.-4      	; 0xa32 <_Z8LCD_initv+0x4a>
     a36:	00 c0       	rjmp	.+0      	; 0xa38 <_Z8LCD_initv+0x50>
     a38:	00 00       	nop
     a3a:	08 95       	ret

00000a3c <_Z9LCD_clearv>:
	_delay_ms(1);
}

void LCD_clear() {
	LCD_command(0x01); // xoa man hinh
     a3c:	81 e0       	ldi	r24, 0x01	; 1
     a3e:	0e 94 c0 04 	call	0x980	; 0x980 <_Z11LCD_commandh>
     a42:	89 ef       	ldi	r24, 0xF9	; 249
     a44:	90 e0       	ldi	r25, 0x00	; 0
     a46:	01 97       	sbiw	r24, 0x01	; 1
     a48:	f1 f7       	brne	.-4      	; 0xa46 <_Z9LCD_clearv+0xa>
     a4a:	00 c0       	rjmp	.+0      	; 0xa4c <_Z9LCD_clearv+0x10>
     a4c:	00 00       	nop
	_delay_ms(1);
	LCD_command(0x80);
     a4e:	80 e8       	ldi	r24, 0x80	; 128
     a50:	0e 94 c0 04 	call	0x980	; 0x980 <_Z11LCD_commandh>
     a54:	89 ef       	ldi	r24, 0xF9	; 249
     a56:	90 e0       	ldi	r25, 0x00	; 0
     a58:	01 97       	sbiw	r24, 0x01	; 1
     a5a:	f1 f7       	brne	.-4      	; 0xa58 <_Z9LCD_clearv+0x1c>
     a5c:	00 c0       	rjmp	.+0      	; 0xa5e <_Z9LCD_clearv+0x22>
     a5e:	00 00       	nop
     a60:	08 95       	ret

00000a62 <_Z10LCD_gotoxyhh>:
	_delay_ms(1);
}

void LCD_gotoxy(unsigned char x, unsigned char y) {
	if(x > 16 || y > 2) {
     a62:	81 31       	cpi	r24, 0x11	; 17
     a64:	78 f4       	brcc	.+30     	; 0xa84 <_Z10LCD_gotoxyhh+0x22>
     a66:	63 30       	cpi	r22, 0x03	; 3
     a68:	68 f4       	brcc	.+26     	; 0xa84 <_Z10LCD_gotoxyhh+0x22>
		return; // 
	}
	unsigned char address;
	if (y == 1)
     a6a:	61 30       	cpi	r22, 0x01	; 1
     a6c:	11 f4       	brne	.+4      	; 0xa72 <_Z10LCD_gotoxyhh+0x10>
	{
		address = 0x80 + x -1;
     a6e:	81 58       	subi	r24, 0x81	; 129
     a70:	01 c0       	rjmp	.+2      	; 0xa74 <_Z10LCD_gotoxyhh+0x12>
	}
	else 
	{
		address = 0xC0 + x - 1;
     a72:	81 54       	subi	r24, 0x41	; 65
	}

	LCD_command(address);
     a74:	0e 94 c0 04 	call	0x980	; 0x980 <_Z11LCD_commandh>
     a78:	83 ef       	ldi	r24, 0xF3	; 243
     a7a:	91 e0       	ldi	r25, 0x01	; 1
     a7c:	01 97       	sbiw	r24, 0x01	; 1
     a7e:	f1 f7       	brne	.-4      	; 0xa7c <_Z10LCD_gotoxyhh+0x1a>
     a80:	00 c0       	rjmp	.+0      	; 0xa82 <_Z10LCD_gotoxyhh+0x20>
     a82:	00 00       	nop
     a84:	08 95       	ret

00000a86 <_Z9LCD_printPKc>:
	_delay_ms(2);  
}


void LCD_print(const char *str) {
     a86:	cf 93       	push	r28
     a88:	df 93       	push	r29
     a8a:	ec 01       	movw	r28, r24
	while(*str) {
     a8c:	88 81       	ld	r24, Y
     a8e:	88 23       	and	r24, r24
     a90:	21 f0       	breq	.+8      	; 0xa9a <_Z9LCD_printPKc+0x14>
		LCD_data(*str++);
     a92:	21 96       	adiw	r28, 0x01	; 1
     a94:	0e 94 da 04 	call	0x9b4	; 0x9b4 <_Z8LCD_datah>
	_delay_ms(2);  
}


void LCD_print(const char *str) {
	while(*str) {
     a98:	f9 cf       	rjmp	.-14     	; 0xa8c <_Z9LCD_printPKc+0x6>
		LCD_data(*str++);
	}
}
     a9a:	df 91       	pop	r29
     a9c:	cf 91       	pop	r28
     a9e:	08 95       	ret

00000aa0 <_Z16LCD_print_resultPKc>:
void LCD_print_result(const char *str) {
     aa0:	ef 92       	push	r14
     aa2:	ff 92       	push	r15
     aa4:	0f 93       	push	r16
     aa6:	1f 93       	push	r17
     aa8:	cf 93       	push	r28
     aaa:	df 93       	push	r29
     aac:	8c 01       	movw	r16, r24
	int i = 0;
     aae:	c0 e0       	ldi	r28, 0x00	; 0
     ab0:	d0 e0       	ldi	r29, 0x00	; 0
	while(str[i] != '\0') {
     ab2:	f8 01       	movw	r30, r16
     ab4:	ec 0f       	add	r30, r28
     ab6:	fd 1f       	adc	r31, r29
     ab8:	80 81       	ld	r24, Z
     aba:	88 23       	and	r24, r24
     abc:	11 f0       	breq	.+4      	; 0xac2 <_Z16LCD_print_resultPKc+0x22>
		i++;
     abe:	21 96       	adiw	r28, 0x01	; 1
		LCD_data(*str++);
	}
}
void LCD_print_result(const char *str) {
	int i = 0;
	while(str[i] != '\0') {
     ac0:	f8 cf       	rjmp	.-16     	; 0xab2 <_Z16LCD_print_resultPKc+0x12>
		i++;
	}
	while(i > 0) {
     ac2:	1c 16       	cp	r1, r28
     ac4:	1d 06       	cpc	r1, r29
     ac6:	84 f4       	brge	.+32     	; 0xae8 <_Z16LCD_print_resultPKc+0x48>
		LCD_gotoxy(16- i + 1, 1);
     ac8:	61 e0       	ldi	r22, 0x01	; 1
     aca:	81 e1       	ldi	r24, 0x11	; 17
     acc:	8c 1b       	sub	r24, r28
     ace:	0e 94 31 05 	call	0xa62	; 0xa62 <_Z10LCD_gotoxyhh>
		LCD_data(*str++); 
     ad2:	78 01       	movw	r14, r16
     ad4:	ef ef       	ldi	r30, 0xFF	; 255
     ad6:	ee 1a       	sub	r14, r30
     ad8:	fe 0a       	sbc	r15, r30
     ada:	f8 01       	movw	r30, r16
     adc:	80 81       	ld	r24, Z
     ade:	0e 94 da 04 	call	0x9b4	; 0x9b4 <_Z8LCD_datah>
		i--; 
     ae2:	21 97       	sbiw	r28, 0x01	; 1
	while(str[i] != '\0') {
		i++;
	}
	while(i > 0) {
		LCD_gotoxy(16- i + 1, 1);
		LCD_data(*str++); 
     ae4:	87 01       	movw	r16, r14
void LCD_print_result(const char *str) {
	int i = 0;
	while(str[i] != '\0') {
		i++;
	}
	while(i > 0) {
     ae6:	ed cf       	rjmp	.-38     	; 0xac2 <_Z16LCD_print_resultPKc+0x22>
		LCD_gotoxy(16- i + 1, 1);
		LCD_data(*str++); 
		i--; 
	}
}
     ae8:	df 91       	pop	r29
     aea:	cf 91       	pop	r28
     aec:	1f 91       	pop	r17
     aee:	0f 91       	pop	r16
     af0:	ff 90       	pop	r15
     af2:	ef 90       	pop	r14
     af4:	08 95       	ret

00000af6 <_Z14LCD_print_charc>:

void LCD_print_char(char str) {
		LCD_data(str);
     af6:	0e 94 da 04 	call	0x9b4	; 0x9b4 <_Z8LCD_datah>
     afa:	08 95       	ret

00000afc <_Z14LCD_print_lastPKc>:
}

void LCD_print_last(const char *str) {
     afc:	cf 93       	push	r28
     afe:	df 93       	push	r29
     b00:	ec 01       	movw	r28, r24
	
	while(*str) {
     b02:	88 81       	ld	r24, Y
     b04:	88 23       	and	r24, r24
     b06:	21 f0       	breq	.+8      	; 0xb10 <_Z14LCD_print_lastPKc+0x14>
		LCD_data(*str++);
     b08:	21 96       	adiw	r28, 0x01	; 1
     b0a:	0e 94 da 04 	call	0x9b4	; 0x9b4 <_Z8LCD_datah>
		LCD_data(str);
}

void LCD_print_last(const char *str) {
	
	while(*str) {
     b0e:	f9 cf       	rjmp	.-14     	; 0xb02 <_Z14LCD_print_lastPKc+0x6>
		LCD_data(*str++);
	}
}
     b10:	df 91       	pop	r29
     b12:	cf 91       	pop	r28
     b14:	08 95       	ret

00000b16 <_Z12clear_stringPc>:

	for (int i = 0 ; i < length -1 ; i++)
	{
		str[i] = str[i+1];
	}
	str[length-1] = '\0';
     b16:	fc 01       	movw	r30, r24
     b18:	10 82       	st	Z, r1
     b1a:	08 95       	ret

00000b1c <_Z8is_digitc>:
     b1c:	80 53       	subi	r24, 0x30	; 48
     b1e:	91 e0       	ldi	r25, 0x01	; 1
     b20:	8a 30       	cpi	r24, 0x0A	; 10
     b22:	08 f0       	brcs	.+2      	; 0xb26 <_Z8is_digitc+0xa>
     b24:	90 e0       	ldi	r25, 0x00	; 0
     b26:	89 2f       	mov	r24, r25
     b28:	90 e0       	ldi	r25, 0x00	; 0
     b2a:	08 95       	ret

00000b2c <_Z10stack_initP5Stack>:
     b2c:	88 58       	subi	r24, 0x88	; 136
     b2e:	9f 4f       	sbci	r25, 0xFF	; 255
     b30:	2f ef       	ldi	r18, 0xFF	; 255
     b32:	3f ef       	ldi	r19, 0xFF	; 255
     b34:	fc 01       	movw	r30, r24
     b36:	31 83       	std	Z+1, r19	; 0x01
     b38:	20 83       	st	Z, r18
     b3a:	08 95       	ret

00000b3c <_Z10stack_pushP5Stackf>:
     b3c:	fc 01       	movw	r30, r24
     b3e:	e8 58       	subi	r30, 0x88	; 136
     b40:	ff 4f       	sbci	r31, 0xFF	; 255
     b42:	20 81       	ld	r18, Z
     b44:	31 81       	ldd	r19, Z+1	; 0x01
     b46:	2d 31       	cpi	r18, 0x1D	; 29
     b48:	31 05       	cpc	r19, r1
     b4a:	7c f4       	brge	.+30     	; 0xb6a <_Z10stack_pushP5Stackf+0x2e>
     b4c:	2f 5f       	subi	r18, 0xFF	; 255
     b4e:	3f 4f       	sbci	r19, 0xFF	; 255
     b50:	31 83       	std	Z+1, r19	; 0x01
     b52:	20 83       	st	Z, r18
     b54:	22 0f       	add	r18, r18
     b56:	33 1f       	adc	r19, r19
     b58:	22 0f       	add	r18, r18
     b5a:	33 1f       	adc	r19, r19
     b5c:	fc 01       	movw	r30, r24
     b5e:	e2 0f       	add	r30, r18
     b60:	f3 1f       	adc	r31, r19
     b62:	40 83       	st	Z, r20
     b64:	51 83       	std	Z+1, r21	; 0x01
     b66:	62 83       	std	Z+2, r22	; 0x02
     b68:	73 83       	std	Z+3, r23	; 0x03
     b6a:	08 95       	ret

00000b6c <_Z9stack_topPK5Stack>:
     b6c:	fc 01       	movw	r30, r24
     b6e:	e8 58       	subi	r30, 0x88	; 136
     b70:	ff 4f       	sbci	r31, 0xFF	; 255
     b72:	20 81       	ld	r18, Z
     b74:	31 81       	ldd	r19, Z+1	; 0x01
     b76:	33 23       	and	r19, r19
     b78:	64 f0       	brlt	.+24     	; 0xb92 <_Z9stack_topPK5Stack+0x26>
     b7a:	22 0f       	add	r18, r18
     b7c:	33 1f       	adc	r19, r19
     b7e:	22 0f       	add	r18, r18
     b80:	33 1f       	adc	r19, r19
     b82:	fc 01       	movw	r30, r24
     b84:	e2 0f       	add	r30, r18
     b86:	f3 1f       	adc	r31, r19
     b88:	60 81       	ld	r22, Z
     b8a:	71 81       	ldd	r23, Z+1	; 0x01
     b8c:	82 81       	ldd	r24, Z+2	; 0x02
     b8e:	93 81       	ldd	r25, Z+3	; 0x03
     b90:	08 95       	ret
     b92:	60 e0       	ldi	r22, 0x00	; 0
     b94:	70 e0       	ldi	r23, 0x00	; 0
     b96:	cb 01       	movw	r24, r22
     b98:	08 95       	ret

00000b9a <_Z9stack_popP5Stack>:
     b9a:	ac 01       	movw	r20, r24
     b9c:	fc 01       	movw	r30, r24
     b9e:	e8 58       	subi	r30, 0x88	; 136
     ba0:	ff 4f       	sbci	r31, 0xFF	; 255
     ba2:	20 81       	ld	r18, Z
     ba4:	31 81       	ldd	r19, Z+1	; 0x01
     ba6:	33 23       	and	r19, r19
     ba8:	9c f0       	brlt	.+38     	; 0xbd0 <_Z9stack_popP5Stack+0x36>
     baa:	f9 01       	movw	r30, r18
     bac:	ee 0f       	add	r30, r30
     bae:	ff 1f       	adc	r31, r31
     bb0:	ee 0f       	add	r30, r30
     bb2:	ff 1f       	adc	r31, r31
     bb4:	e8 0f       	add	r30, r24
     bb6:	f9 1f       	adc	r31, r25
     bb8:	60 81       	ld	r22, Z
     bba:	71 81       	ldd	r23, Z+1	; 0x01
     bbc:	82 81       	ldd	r24, Z+2	; 0x02
     bbe:	93 81       	ldd	r25, Z+3	; 0x03
     bc0:	fa 01       	movw	r30, r20
     bc2:	e8 58       	subi	r30, 0x88	; 136
     bc4:	ff 4f       	sbci	r31, 0xFF	; 255
     bc6:	21 50       	subi	r18, 0x01	; 1
     bc8:	31 09       	sbc	r19, r1
     bca:	31 83       	std	Z+1, r19	; 0x01
     bcc:	20 83       	st	Z, r18
     bce:	08 95       	ret
     bd0:	60 e0       	ldi	r22, 0x00	; 0
     bd2:	70 e0       	ldi	r23, 0x00	; 0
     bd4:	cb 01       	movw	r24, r22
     bd6:	08 95       	ret

00000bd8 <_Z17addIntToStringEndPcm>:
     bd8:	dc 01       	movw	r26, r24
     bda:	20 e0       	ldi	r18, 0x00	; 0
     bdc:	30 e0       	ldi	r19, 0x00	; 0
     bde:	b9 01       	movw	r22, r18
     be0:	fd 01       	movw	r30, r26
     be2:	e2 0f       	add	r30, r18
     be4:	f3 1f       	adc	r31, r19
     be6:	90 81       	ld	r25, Z
     be8:	99 23       	and	r25, r25
     bea:	19 f0       	breq	.+6      	; 0xbf2 <_Z17addIntToStringEndPcm+0x1a>
     bec:	2f 5f       	subi	r18, 0xFF	; 255
     bee:	3f 4f       	sbci	r19, 0xFF	; 255
     bf0:	f6 cf       	rjmp	.-20     	; 0xbde <_Z17addIntToStringEndPcm+0x6>
     bf2:	40 5d       	subi	r20, 0xD0	; 208
     bf4:	40 83       	st	Z, r20
     bf6:	6f 5f       	subi	r22, 0xFF	; 255
     bf8:	7f 4f       	sbci	r23, 0xFF	; 255
     bfa:	fd 01       	movw	r30, r26
     bfc:	e6 0f       	add	r30, r22
     bfe:	f7 1f       	adc	r31, r23
     c00:	10 82       	st	Z, r1
     c02:	08 95       	ret

00000c04 <_Z19addIntToStringStartPcm>:
     c04:	20 e0       	ldi	r18, 0x00	; 0
     c06:	30 e0       	ldi	r19, 0x00	; 0
     c08:	b9 01       	movw	r22, r18
     c0a:	fc 01       	movw	r30, r24
     c0c:	e2 0f       	add	r30, r18
     c0e:	f3 1f       	adc	r31, r19
     c10:	50 81       	ld	r21, Z
     c12:	55 23       	and	r21, r21
     c14:	19 f0       	breq	.+6      	; 0xc1c <_Z19addIntToStringStartPcm+0x18>
     c16:	2f 5f       	subi	r18, 0xFF	; 255
     c18:	3f 4f       	sbci	r19, 0xFF	; 255
     c1a:	f6 cf       	rjmp	.-20     	; 0xc08 <_Z19addIntToStringStartPcm+0x4>
     c1c:	33 23       	and	r19, r19
     c1e:	64 f0       	brlt	.+24     	; 0xc38 <_Z19addIntToStringStartPcm+0x34>
     c20:	f9 01       	movw	r30, r18
     c22:	31 96       	adiw	r30, 0x01	; 1
     c24:	e8 0f       	add	r30, r24
     c26:	f9 1f       	adc	r31, r25
     c28:	dc 01       	movw	r26, r24
     c2a:	a2 0f       	add	r26, r18
     c2c:	b3 1f       	adc	r27, r19
     c2e:	5c 91       	ld	r21, X
     c30:	50 83       	st	Z, r21
     c32:	21 50       	subi	r18, 0x01	; 1
     c34:	31 09       	sbc	r19, r1
     c36:	f2 cf       	rjmp	.-28     	; 0xc1c <_Z19addIntToStringStartPcm+0x18>
     c38:	40 5d       	subi	r20, 0xD0	; 208
     c3a:	fc 01       	movw	r30, r24
     c3c:	40 83       	st	Z, r20
     c3e:	6e 5f       	subi	r22, 0xFE	; 254
     c40:	7f 4f       	sbci	r23, 0xFF	; 255
     c42:	e6 0f       	add	r30, r22
     c44:	f7 1f       	adc	r31, r23
     c46:	10 82       	st	Z, r1
     c48:	08 95       	ret

00000c4a <_Z20addCharToStringStartPcc>:
     c4a:	cf 93       	push	r28
     c4c:	df 93       	push	r29
     c4e:	20 e0       	ldi	r18, 0x00	; 0
     c50:	30 e0       	ldi	r19, 0x00	; 0
     c52:	e9 01       	movw	r28, r18
     c54:	fc 01       	movw	r30, r24
     c56:	e2 0f       	add	r30, r18
     c58:	f3 1f       	adc	r31, r19
     c5a:	40 81       	ld	r20, Z
     c5c:	44 23       	and	r20, r20
     c5e:	19 f0       	breq	.+6      	; 0xc66 <_Z20addCharToStringStartPcc+0x1c>
     c60:	2f 5f       	subi	r18, 0xFF	; 255
     c62:	3f 4f       	sbci	r19, 0xFF	; 255
     c64:	f6 cf       	rjmp	.-20     	; 0xc52 <_Z20addCharToStringStartPcc+0x8>
     c66:	33 23       	and	r19, r19
     c68:	64 f0       	brlt	.+24     	; 0xc82 <_Z20addCharToStringStartPcc+0x38>
     c6a:	f9 01       	movw	r30, r18
     c6c:	31 96       	adiw	r30, 0x01	; 1
     c6e:	e8 0f       	add	r30, r24
     c70:	f9 1f       	adc	r31, r25
     c72:	dc 01       	movw	r26, r24
     c74:	a2 0f       	add	r26, r18
     c76:	b3 1f       	adc	r27, r19
     c78:	4c 91       	ld	r20, X
     c7a:	40 83       	st	Z, r20
     c7c:	21 50       	subi	r18, 0x01	; 1
     c7e:	31 09       	sbc	r19, r1
     c80:	f2 cf       	rjmp	.-28     	; 0xc66 <_Z20addCharToStringStartPcc+0x1c>
     c82:	fc 01       	movw	r30, r24
     c84:	60 83       	st	Z, r22
     c86:	22 96       	adiw	r28, 0x02	; 2
     c88:	c8 0f       	add	r28, r24
     c8a:	d9 1f       	adc	r29, r25
     c8c:	18 82       	st	Y, r1
     c8e:	df 91       	pop	r29
     c90:	cf 91       	pop	r28
     c92:	08 95       	ret

00000c94 <_Z18addCharToStringEndPcc>:
     c94:	dc 01       	movw	r26, r24
     c96:	20 e0       	ldi	r18, 0x00	; 0
     c98:	30 e0       	ldi	r19, 0x00	; 0
     c9a:	a9 01       	movw	r20, r18
     c9c:	fd 01       	movw	r30, r26
     c9e:	e2 0f       	add	r30, r18
     ca0:	f3 1f       	adc	r31, r19
     ca2:	90 81       	ld	r25, Z
     ca4:	99 23       	and	r25, r25
     ca6:	19 f0       	breq	.+6      	; 0xcae <_Z18addCharToStringEndPcc+0x1a>
     ca8:	2f 5f       	subi	r18, 0xFF	; 255
     caa:	3f 4f       	sbci	r19, 0xFF	; 255
     cac:	f6 cf       	rjmp	.-20     	; 0xc9a <_Z18addCharToStringEndPcc+0x6>
     cae:	60 83       	st	Z, r22
     cb0:	4f 5f       	subi	r20, 0xFF	; 255
     cb2:	5f 4f       	sbci	r21, 0xFF	; 255
     cb4:	fd 01       	movw	r30, r26
     cb6:	e4 0f       	add	r30, r20
     cb8:	f5 1f       	adc	r31, r21
     cba:	10 82       	st	Z, r1
     cbc:	08 95       	ret

00000cbe <_Z11stringToNumPKc>:
     cbe:	4f 92       	push	r4
     cc0:	5f 92       	push	r5
     cc2:	6f 92       	push	r6
     cc4:	7f 92       	push	r7
     cc6:	8f 92       	push	r8
     cc8:	9f 92       	push	r9
     cca:	af 92       	push	r10
     ccc:	bf 92       	push	r11
     cce:	cf 92       	push	r12
     cd0:	df 92       	push	r13
     cd2:	ef 92       	push	r14
     cd4:	ff 92       	push	r15
     cd6:	0f 93       	push	r16
     cd8:	1f 93       	push	r17
     cda:	cf 93       	push	r28
     cdc:	df 93       	push	r29
     cde:	fc 01       	movw	r30, r24
     ce0:	c1 2c       	mov	r12, r1
     ce2:	d1 2c       	mov	r13, r1
     ce4:	76 01       	movw	r14, r12
     ce6:	01 c0       	rjmp	.+2      	; 0xcea <_Z11stringToNumPKc+0x2c>
     ce8:	fe 01       	movw	r30, r28
     cea:	ef 01       	movw	r28, r30
     cec:	21 96       	adiw	r28, 0x01	; 1
     cee:	b0 80       	ld	r11, Z
     cf0:	bb 20       	and	r11, r11
     cf2:	09 f4       	brne	.+2      	; 0xcf6 <_Z11stringToNumPKc+0x38>
     cf4:	a0 c0       	rjmp	.+320    	; 0xe36 <_Z11stringToNumPKc+0x178>
     cf6:	80 e2       	ldi	r24, 0x20	; 32
     cf8:	b8 16       	cp	r11, r24
     cfa:	b1 f3       	breq	.-20     	; 0xce8 <_Z11stringToNumPKc+0x2a>
     cfc:	8b 2d       	mov	r24, r11
     cfe:	0e 94 8e 05 	call	0xb1c	; 0xb1c <_Z8is_digitc>
     d02:	89 2b       	or	r24, r25
     d04:	89 f3       	breq	.-30     	; 0xce8 <_Z11stringToNumPKc+0x2a>
     d06:	6b 2d       	mov	r22, r11
     d08:	70 e0       	ldi	r23, 0x00	; 0
     d0a:	60 53       	subi	r22, 0x30	; 48
     d0c:	71 09       	sbc	r23, r1
     d0e:	07 2e       	mov	r0, r23
     d10:	00 0c       	add	r0, r0
     d12:	88 0b       	sbc	r24, r24
     d14:	99 0b       	sbc	r25, r25
     d16:	0e 94 85 0f 	call	0x1f0a	; 0x1f0a <__floatsisf>
     d1a:	6b 01       	movw	r12, r22
     d1c:	7c 01       	movw	r14, r24
     d1e:	18 81       	ld	r17, Y
     d20:	81 2f       	mov	r24, r17
     d22:	0e 94 8e 05 	call	0xb1c	; 0xb1c <_Z8is_digitc>
     d26:	89 2b       	or	r24, r25
     d28:	21 f0       	breq	.+8      	; 0xd32 <_Z11stringToNumPKc+0x74>
     d2a:	11 11       	cpse	r17, r1
     d2c:	04 c0       	rjmp	.+8      	; 0xd36 <_Z11stringToNumPKc+0x78>
     d2e:	00 e0       	ldi	r16, 0x00	; 0
     d30:	03 c0       	rjmp	.+6      	; 0xd38 <_Z11stringToNumPKc+0x7a>
     d32:	00 e0       	ldi	r16, 0x00	; 0
     d34:	01 c0       	rjmp	.+2      	; 0xd38 <_Z11stringToNumPKc+0x7a>
     d36:	01 e0       	ldi	r16, 0x01	; 1
     d38:	00 23       	and	r16, r16
     d3a:	f1 f0       	breq	.+60     	; 0xd78 <_Z11stringToNumPKc+0xba>
     d3c:	20 e0       	ldi	r18, 0x00	; 0
     d3e:	30 e0       	ldi	r19, 0x00	; 0
     d40:	40 e2       	ldi	r20, 0x20	; 32
     d42:	51 e4       	ldi	r21, 0x41	; 65
     d44:	c7 01       	movw	r24, r14
     d46:	b6 01       	movw	r22, r12
     d48:	0e 94 88 10 	call	0x2110	; 0x2110 <__mulsf3>
     d4c:	6b 01       	movw	r12, r22
     d4e:	7c 01       	movw	r14, r24
     d50:	21 96       	adiw	r28, 0x01	; 1
     d52:	61 2f       	mov	r22, r17
     d54:	70 e0       	ldi	r23, 0x00	; 0
     d56:	60 53       	subi	r22, 0x30	; 48
     d58:	71 09       	sbc	r23, r1
     d5a:	07 2e       	mov	r0, r23
     d5c:	00 0c       	add	r0, r0
     d5e:	88 0b       	sbc	r24, r24
     d60:	99 0b       	sbc	r25, r25
     d62:	0e 94 85 0f 	call	0x1f0a	; 0x1f0a <__floatsisf>
     d66:	9b 01       	movw	r18, r22
     d68:	ac 01       	movw	r20, r24
     d6a:	c7 01       	movw	r24, r14
     d6c:	b6 01       	movw	r22, r12
     d6e:	0e 94 2f 0e 	call	0x1c5e	; 0x1c5e <__addsf3>
     d72:	6b 01       	movw	r12, r22
     d74:	7c 01       	movw	r14, r24
     d76:	d3 cf       	rjmp	.-90     	; 0xd1e <_Z11stringToNumPKc+0x60>
     d78:	1e 32       	cpi	r17, 0x2E	; 46
     d7a:	09 f0       	breq	.+2      	; 0xd7e <_Z11stringToNumPKc+0xc0>
     d7c:	47 c0       	rjmp	.+142    	; 0xe0c <_Z11stringToNumPKc+0x14e>
     d7e:	21 96       	adiw	r28, 0x01	; 1
     d80:	0f 2e       	mov	r0, r31
     d82:	fd ec       	ldi	r31, 0xCD	; 205
     d84:	8f 2e       	mov	r8, r31
     d86:	fc ec       	ldi	r31, 0xCC	; 204
     d88:	9f 2e       	mov	r9, r31
     d8a:	a9 2c       	mov	r10, r9
     d8c:	fd e3       	ldi	r31, 0x3D	; 61
     d8e:	bf 2e       	mov	r11, r31
     d90:	f0 2d       	mov	r31, r0
     d92:	41 2c       	mov	r4, r1
     d94:	51 2c       	mov	r5, r1
     d96:	32 01       	movw	r6, r4
     d98:	18 81       	ld	r17, Y
     d9a:	81 2f       	mov	r24, r17
     d9c:	0e 94 8e 05 	call	0xb1c	; 0xb1c <_Z8is_digitc>
     da0:	89 2b       	or	r24, r25
     da2:	21 f0       	breq	.+8      	; 0xdac <_Z11stringToNumPKc+0xee>
     da4:	11 11       	cpse	r17, r1
     da6:	04 c0       	rjmp	.+8      	; 0xdb0 <_Z11stringToNumPKc+0xf2>
     da8:	80 2f       	mov	r24, r16
     daa:	03 c0       	rjmp	.+6      	; 0xdb2 <_Z11stringToNumPKc+0xf4>
     dac:	80 2f       	mov	r24, r16
     dae:	01 c0       	rjmp	.+2      	; 0xdb2 <_Z11stringToNumPKc+0xf4>
     db0:	81 e0       	ldi	r24, 0x01	; 1
     db2:	88 23       	and	r24, r24
     db4:	11 f1       	breq	.+68     	; 0xdfa <_Z11stringToNumPKc+0x13c>
     db6:	61 2f       	mov	r22, r17
     db8:	70 e0       	ldi	r23, 0x00	; 0
     dba:	60 53       	subi	r22, 0x30	; 48
     dbc:	71 09       	sbc	r23, r1
     dbe:	07 2e       	mov	r0, r23
     dc0:	00 0c       	add	r0, r0
     dc2:	88 0b       	sbc	r24, r24
     dc4:	99 0b       	sbc	r25, r25
     dc6:	0e 94 85 0f 	call	0x1f0a	; 0x1f0a <__floatsisf>
     dca:	a5 01       	movw	r20, r10
     dcc:	94 01       	movw	r18, r8
     dce:	0e 94 88 10 	call	0x2110	; 0x2110 <__mulsf3>
     dd2:	9b 01       	movw	r18, r22
     dd4:	ac 01       	movw	r20, r24
     dd6:	c3 01       	movw	r24, r6
     dd8:	b2 01       	movw	r22, r4
     dda:	0e 94 2f 0e 	call	0x1c5e	; 0x1c5e <__addsf3>
     dde:	2b 01       	movw	r4, r22
     de0:	3c 01       	movw	r6, r24
     de2:	2d ec       	ldi	r18, 0xCD	; 205
     de4:	3c ec       	ldi	r19, 0xCC	; 204
     de6:	4c ec       	ldi	r20, 0xCC	; 204
     de8:	5d e3       	ldi	r21, 0x3D	; 61
     dea:	c5 01       	movw	r24, r10
     dec:	b4 01       	movw	r22, r8
     dee:	0e 94 88 10 	call	0x2110	; 0x2110 <__mulsf3>
     df2:	4b 01       	movw	r8, r22
     df4:	5c 01       	movw	r10, r24
     df6:	21 96       	adiw	r28, 0x01	; 1
     df8:	cf cf       	rjmp	.-98     	; 0xd98 <_Z11stringToNumPKc+0xda>
     dfa:	a3 01       	movw	r20, r6
     dfc:	92 01       	movw	r18, r4
     dfe:	c7 01       	movw	r24, r14
     e00:	b6 01       	movw	r22, r12
     e02:	0e 94 2f 0e 	call	0x1c5e	; 0x1c5e <__addsf3>
     e06:	6b 01       	movw	r12, r22
     e08:	7c 01       	movw	r14, r24
     e0a:	6e cf       	rjmp	.-292    	; 0xce8 <_Z11stringToNumPKc+0x2a>
     e0c:	8e e2       	ldi	r24, 0x2E	; 46
     e0e:	b8 12       	cpse	r11, r24
     e10:	6b cf       	rjmp	.-298    	; 0xce8 <_Z11stringToNumPKc+0x2a>
     e12:	18 81       	ld	r17, Y
     e14:	81 2f       	mov	r24, r17
     e16:	0e 94 8e 05 	call	0xb1c	; 0xb1c <_Z8is_digitc>
     e1a:	89 2b       	or	r24, r25
     e1c:	21 f0       	breq	.+8      	; 0xe26 <_Z11stringToNumPKc+0x168>
     e1e:	11 11       	cpse	r17, r1
     e20:	04 c0       	rjmp	.+8      	; 0xe2a <_Z11stringToNumPKc+0x16c>
     e22:	80 2f       	mov	r24, r16
     e24:	03 c0       	rjmp	.+6      	; 0xe2c <_Z11stringToNumPKc+0x16e>
     e26:	80 2f       	mov	r24, r16
     e28:	01 c0       	rjmp	.+2      	; 0xe2c <_Z11stringToNumPKc+0x16e>
     e2a:	81 e0       	ldi	r24, 0x01	; 1
     e2c:	88 23       	and	r24, r24
     e2e:	09 f4       	brne	.+2      	; 0xe32 <_Z11stringToNumPKc+0x174>
     e30:	5b cf       	rjmp	.-330    	; 0xce8 <_Z11stringToNumPKc+0x2a>
     e32:	21 96       	adiw	r28, 0x01	; 1
     e34:	ee cf       	rjmp	.-36     	; 0xe12 <_Z11stringToNumPKc+0x154>
     e36:	c7 01       	movw	r24, r14
     e38:	b6 01       	movw	r22, r12
     e3a:	df 91       	pop	r29
     e3c:	cf 91       	pop	r28
     e3e:	1f 91       	pop	r17
     e40:	0f 91       	pop	r16
     e42:	ff 90       	pop	r15
     e44:	ef 90       	pop	r14
     e46:	df 90       	pop	r13
     e48:	cf 90       	pop	r12
     e4a:	bf 90       	pop	r11
     e4c:	af 90       	pop	r10
     e4e:	9f 90       	pop	r9
     e50:	8f 90       	pop	r8
     e52:	7f 90       	pop	r7
     e54:	6f 90       	pop	r6
     e56:	5f 90       	pop	r5
     e58:	4f 90       	pop	r4
     e5a:	08 95       	ret

00000e5c <_Z14numAllToStringyPc>:
     e5c:	2f 92       	push	r2
     e5e:	3f 92       	push	r3
     e60:	4f 92       	push	r4
     e62:	5f 92       	push	r5
     e64:	6f 92       	push	r6
     e66:	7f 92       	push	r7
     e68:	8f 92       	push	r8
     e6a:	9f 92       	push	r9
     e6c:	af 92       	push	r10
     e6e:	bf 92       	push	r11
     e70:	cf 92       	push	r12
     e72:	df 92       	push	r13
     e74:	ef 92       	push	r14
     e76:	ff 92       	push	r15
     e78:	0f 93       	push	r16
     e7a:	1f 93       	push	r17
     e7c:	cf 93       	push	r28
     e7e:	df 93       	push	r29
     e80:	22 2e       	mov	r2, r18
     e82:	33 2e       	mov	r3, r19
     e84:	44 2e       	mov	r4, r20
     e86:	55 2e       	mov	r5, r21
     e88:	86 2e       	mov	r8, r22
     e8a:	97 2e       	mov	r9, r23
     e8c:	d8 2f       	mov	r29, r24
     e8e:	c9 2f       	mov	r28, r25
     e90:	38 01       	movw	r6, r16
     e92:	0f 2e       	mov	r0, r31
     e94:	fa e0       	ldi	r31, 0x0A	; 10
     e96:	af 2e       	mov	r10, r31
     e98:	f0 2d       	mov	r31, r0
     e9a:	b1 2c       	mov	r11, r1
     e9c:	c1 2c       	mov	r12, r1
     e9e:	d1 2c       	mov	r13, r1
     ea0:	e1 2c       	mov	r14, r1
     ea2:	f1 2c       	mov	r15, r1
     ea4:	00 e0       	ldi	r16, 0x00	; 0
     ea6:	10 e0       	ldi	r17, 0x00	; 0
     ea8:	22 2d       	mov	r18, r2
     eaa:	33 2d       	mov	r19, r3
     eac:	44 2d       	mov	r20, r4
     eae:	55 2d       	mov	r21, r5
     eb0:	68 2d       	mov	r22, r8
     eb2:	79 2d       	mov	r23, r9
     eb4:	8d 2f       	mov	r24, r29
     eb6:	9c 2f       	mov	r25, r28
     eb8:	0e 94 fb 10 	call	0x21f6	; 0x21f6 <__umoddi3>
     ebc:	64 2f       	mov	r22, r20
     ebe:	75 2f       	mov	r23, r21
     ec0:	42 2f       	mov	r20, r18
     ec2:	53 2f       	mov	r21, r19
     ec4:	c3 01       	movw	r24, r6
     ec6:	0e 94 02 06 	call	0xc04	; 0xc04 <_Z19addIntToStringStartPcm>
     eca:	22 2d       	mov	r18, r2
     ecc:	33 2d       	mov	r19, r3
     ece:	44 2d       	mov	r20, r4
     ed0:	55 2d       	mov	r21, r5
     ed2:	68 2d       	mov	r22, r8
     ed4:	79 2d       	mov	r23, r9
     ed6:	8d 2f       	mov	r24, r29
     ed8:	9c 2f       	mov	r25, r28
     eda:	0e 94 fd 10 	call	0x21fa	; 0x21fa <__udivdi3>
     ede:	22 2e       	mov	r2, r18
     ee0:	33 2e       	mov	r3, r19
     ee2:	44 2e       	mov	r4, r20
     ee4:	55 2e       	mov	r5, r21
     ee6:	86 2e       	mov	r8, r22
     ee8:	97 2e       	mov	r9, r23
     eea:	d8 2f       	mov	r29, r24
     eec:	c9 2f       	mov	r28, r25
     eee:	a0 e0       	ldi	r26, 0x00	; 0
     ef0:	0e 94 6c 11 	call	0x22d8	; 0x22d8 <__cmpdi2_s8>
     ef4:	71 f6       	brne	.-100    	; 0xe92 <_Z14numAllToStringyPc+0x36>
     ef6:	df 91       	pop	r29
     ef8:	cf 91       	pop	r28
     efa:	1f 91       	pop	r17
     efc:	0f 91       	pop	r16
     efe:	ff 90       	pop	r15
     f00:	ef 90       	pop	r14
     f02:	df 90       	pop	r13
     f04:	cf 90       	pop	r12
     f06:	bf 90       	pop	r11
     f08:	af 90       	pop	r10
     f0a:	9f 90       	pop	r9
     f0c:	8f 90       	pop	r8
     f0e:	7f 90       	pop	r7
     f10:	6f 90       	pop	r6
     f12:	5f 90       	pop	r5
     f14:	4f 90       	pop	r4
     f16:	3f 90       	pop	r3
     f18:	2f 90       	pop	r2
     f1a:	08 95       	ret

00000f1c <_Z14numAllToStringdPc>:
     f1c:	2f 92       	push	r2
     f1e:	3f 92       	push	r3
     f20:	4f 92       	push	r4
     f22:	5f 92       	push	r5
     f24:	6f 92       	push	r6
     f26:	7f 92       	push	r7
     f28:	8f 92       	push	r8
     f2a:	9f 92       	push	r9
     f2c:	af 92       	push	r10
     f2e:	bf 92       	push	r11
     f30:	cf 92       	push	r12
     f32:	df 92       	push	r13
     f34:	ef 92       	push	r14
     f36:	ff 92       	push	r15
     f38:	0f 93       	push	r16
     f3a:	1f 93       	push	r17
     f3c:	cf 93       	push	r28
     f3e:	df 93       	push	r29
     f40:	cd b7       	in	r28, 0x3d	; 61
     f42:	de b7       	in	r29, 0x3e	; 62
     f44:	2d 97       	sbiw	r28, 0x0d	; 13
     f46:	0f b6       	in	r0, 0x3f	; 63
     f48:	f8 94       	cli
     f4a:	de bf       	out	0x3e, r29	; 62
     f4c:	0f be       	out	0x3f, r0	; 63
     f4e:	cd bf       	out	0x3d, r28	; 61
     f50:	6b 01       	movw	r12, r22
     f52:	7c 01       	movw	r14, r24
     f54:	5c 83       	std	Y+4, r21	; 0x04
     f56:	4b 83       	std	Y+3, r20	; 0x03
     f58:	20 e0       	ldi	r18, 0x00	; 0
     f5a:	30 e0       	ldi	r19, 0x00	; 0
     f5c:	a9 01       	movw	r20, r18
     f5e:	0e 94 9b 0e 	call	0x1d36	; 0x1d36 <__cmpsf2>
     f62:	88 23       	and	r24, r24
     f64:	4c f4       	brge	.+18     	; 0xf78 <_Z14numAllToStringdPc+0x5c>
     f66:	f7 fa       	bst	r15, 7
     f68:	f0 94       	com	r15
     f6a:	f7 f8       	bld	r15, 7
     f6c:	f0 94       	com	r15
     f6e:	81 e0       	ldi	r24, 0x01	; 1
     f70:	90 e0       	ldi	r25, 0x00	; 0
     f72:	9a 87       	std	Y+10, r25	; 0x0a
     f74:	89 87       	std	Y+9, r24	; 0x09
     f76:	02 c0       	rjmp	.+4      	; 0xf7c <_Z14numAllToStringdPc+0x60>
     f78:	1a 86       	std	Y+10, r1	; 0x0a
     f7a:	19 86       	std	Y+9, r1	; 0x09
     f7c:	c7 01       	movw	r24, r14
     f7e:	b6 01       	movw	r22, r12
     f80:	0e 94 17 0f 	call	0x1e2e	; 0x1e2e <__fixunssfdi>
     f84:	2b 87       	std	Y+11, r18	; 0x0b
     f86:	39 83       	std	Y+1, r19	; 0x01
     f88:	84 2e       	mov	r8, r20
     f8a:	95 2e       	mov	r9, r21
     f8c:	46 2e       	mov	r4, r22
     f8e:	57 2e       	mov	r5, r23
     f90:	68 2e       	mov	r6, r24
     f92:	79 2e       	mov	r7, r25
     f94:	0e 94 c0 0f 	call	0x1f80	; 0x1f80 <__floatundisf>
     f98:	9b 01       	movw	r18, r22
     f9a:	ac 01       	movw	r20, r24
     f9c:	c7 01       	movw	r24, r14
     f9e:	b6 01       	movw	r22, r12
     fa0:	0e 94 2e 0e 	call	0x1c5c	; 0x1c5c <__subsf3>
     fa4:	6d 83       	std	Y+5, r22	; 0x05
     fa6:	7e 83       	std	Y+6, r23	; 0x06
     fa8:	8f 83       	std	Y+7, r24	; 0x07
     faa:	98 87       	std	Y+8, r25	; 0x08
     fac:	89 81       	ldd	r24, Y+1	; 0x01
     fae:	8d 87       	std	Y+13, r24	; 0x0d
     fb0:	0f 2e       	mov	r0, r31
     fb2:	fa e0       	ldi	r31, 0x0A	; 10
     fb4:	af 2e       	mov	r10, r31
     fb6:	f0 2d       	mov	r31, r0
     fb8:	b1 2c       	mov	r11, r1
     fba:	c1 2c       	mov	r12, r1
     fbc:	d1 2c       	mov	r13, r1
     fbe:	e1 2c       	mov	r14, r1
     fc0:	f1 2c       	mov	r15, r1
     fc2:	00 e0       	ldi	r16, 0x00	; 0
     fc4:	10 e0       	ldi	r17, 0x00	; 0
     fc6:	2b 85       	ldd	r18, Y+11	; 0x0b
     fc8:	3d 85       	ldd	r19, Y+13	; 0x0d
     fca:	48 2d       	mov	r20, r8
     fcc:	59 2d       	mov	r21, r9
     fce:	64 2d       	mov	r22, r4
     fd0:	75 2d       	mov	r23, r5
     fd2:	86 2d       	mov	r24, r6
     fd4:	97 2d       	mov	r25, r7
     fd6:	0e 94 fb 10 	call	0x21f6	; 0x21f6 <__umoddi3>
     fda:	22 2e       	mov	r2, r18
     fdc:	33 2e       	mov	r3, r19
     fde:	49 83       	std	Y+1, r20	; 0x01
     fe0:	5a 83       	std	Y+2, r21	; 0x02
     fe2:	e6 2e       	mov	r14, r22
     fe4:	f7 2e       	mov	r15, r23
     fe6:	08 2f       	mov	r16, r24
     fe8:	19 2f       	mov	r17, r25
     fea:	2b 85       	ldd	r18, Y+11	; 0x0b
     fec:	3d 85       	ldd	r19, Y+13	; 0x0d
     fee:	48 2d       	mov	r20, r8
     ff0:	59 2d       	mov	r21, r9
     ff2:	64 2d       	mov	r22, r4
     ff4:	75 2d       	mov	r23, r5
     ff6:	86 2d       	mov	r24, r6
     ff8:	97 2d       	mov	r25, r7
     ffa:	a2 2c       	mov	r10, r2
     ffc:	b3 2c       	mov	r11, r3
     ffe:	c9 80       	ldd	r12, Y+1	; 0x01
    1000:	da 80       	ldd	r13, Y+2	; 0x02
    1002:	0e 94 5a 11 	call	0x22b4	; 0x22b4 <__subdi3>
    1006:	0f 2e       	mov	r0, r31
    1008:	fa e0       	ldi	r31, 0x0A	; 10
    100a:	af 2e       	mov	r10, r31
    100c:	f0 2d       	mov	r31, r0
    100e:	b1 2c       	mov	r11, r1
    1010:	c1 2c       	mov	r12, r1
    1012:	d1 2c       	mov	r13, r1
    1014:	e1 2c       	mov	r14, r1
    1016:	f1 2c       	mov	r15, r1
    1018:	00 e0       	ldi	r16, 0x00	; 0
    101a:	10 e0       	ldi	r17, 0x00	; 0
    101c:	0e 94 fd 10 	call	0x21fa	; 0x21fa <__udivdi3>
    1020:	a2 2e       	mov	r10, r18
    1022:	b3 2e       	mov	r11, r19
    1024:	c4 2e       	mov	r12, r20
    1026:	d5 2e       	mov	r13, r21
    1028:	e6 2e       	mov	r14, r22
    102a:	f7 2e       	mov	r15, r23
    102c:	08 2f       	mov	r16, r24
    102e:	19 2f       	mov	r17, r25
    1030:	2b 87       	std	Y+11, r18	; 0x0b
    1032:	3d 87       	std	Y+13, r19	; 0x0d
    1034:	84 2e       	mov	r8, r20
    1036:	95 2e       	mov	r9, r21
    1038:	46 2e       	mov	r4, r22
    103a:	57 2e       	mov	r5, r23
    103c:	68 2e       	mov	r6, r24
    103e:	79 2e       	mov	r7, r25
    1040:	42 2d       	mov	r20, r2
    1042:	53 2d       	mov	r21, r3
    1044:	69 81       	ldd	r22, Y+1	; 0x01
    1046:	7a 81       	ldd	r23, Y+2	; 0x02
    1048:	8b 81       	ldd	r24, Y+3	; 0x03
    104a:	9c 81       	ldd	r25, Y+4	; 0x04
    104c:	0e 94 02 06 	call	0xc04	; 0xc04 <_Z19addIntToStringStartPcm>
    1050:	2a 2d       	mov	r18, r10
    1052:	3b 2d       	mov	r19, r11
    1054:	4c 2d       	mov	r20, r12
    1056:	5d 2d       	mov	r21, r13
    1058:	6e 2d       	mov	r22, r14
    105a:	7f 2d       	mov	r23, r15
    105c:	80 2f       	mov	r24, r16
    105e:	91 2f       	mov	r25, r17
    1060:	a0 e0       	ldi	r26, 0x00	; 0
    1062:	0e 94 6c 11 	call	0x22d8	; 0x22d8 <__cmpdi2_s8>
    1066:	09 f0       	breq	.+2      	; 0x106a <_Z14numAllToStringdPc+0x14e>
    1068:	a3 cf       	rjmp	.-186    	; 0xfb0 <_Z14numAllToStringdPc+0x94>
    106a:	20 e0       	ldi	r18, 0x00	; 0
    106c:	30 e0       	ldi	r19, 0x00	; 0
    106e:	a9 01       	movw	r20, r18
    1070:	6d 81       	ldd	r22, Y+5	; 0x05
    1072:	7e 81       	ldd	r23, Y+6	; 0x06
    1074:	8f 81       	ldd	r24, Y+7	; 0x07
    1076:	98 85       	ldd	r25, Y+8	; 0x08
    1078:	0e 94 9b 0e 	call	0x1d36	; 0x1d36 <__cmpsf2>
    107c:	88 23       	and	r24, r24
    107e:	29 f0       	breq	.+10     	; 0x108a <_Z14numAllToStringdPc+0x16e>
    1080:	6e e2       	ldi	r22, 0x2E	; 46
    1082:	8b 81       	ldd	r24, Y+3	; 0x03
    1084:	9c 81       	ldd	r25, Y+4	; 0x04
    1086:	0e 94 4a 06 	call	0xc94	; 0xc94 <_Z18addCharToStringEndPcc>
    108a:	1c 86       	std	Y+12, r1	; 0x0c
    108c:	1b 86       	std	Y+11, r1	; 0x0b
    108e:	cd 80       	ldd	r12, Y+5	; 0x05
    1090:	de 80       	ldd	r13, Y+6	; 0x06
    1092:	ef 80       	ldd	r14, Y+7	; 0x07
    1094:	f8 84       	ldd	r15, Y+8	; 0x08
    1096:	27 e1       	ldi	r18, 0x17	; 23
    1098:	37 eb       	ldi	r19, 0xB7	; 183
    109a:	41 ed       	ldi	r20, 0xD1	; 209
    109c:	58 e3       	ldi	r21, 0x38	; 56
    109e:	c7 01       	movw	r24, r14
    10a0:	b6 01       	movw	r22, r12
    10a2:	0e 94 83 10 	call	0x2106	; 0x2106 <__gesf2>
    10a6:	88 23       	and	r24, r24
    10a8:	ac f1       	brlt	.+106    	; 0x1114 <_Z14numAllToStringdPc+0x1f8>
    10aa:	20 e0       	ldi	r18, 0x00	; 0
    10ac:	30 e0       	ldi	r19, 0x00	; 0
    10ae:	40 e2       	ldi	r20, 0x20	; 32
    10b0:	51 e4       	ldi	r21, 0x41	; 65
    10b2:	c7 01       	movw	r24, r14
    10b4:	b6 01       	movw	r22, r12
    10b6:	0e 94 88 10 	call	0x2110	; 0x2110 <__mulsf3>
    10ba:	6b 01       	movw	r12, r22
    10bc:	7c 01       	movw	r14, r24
    10be:	0e 94 17 0f 	call	0x1e2e	; 0x1e2e <__fixunssfdi>
    10c2:	a2 2e       	mov	r10, r18
    10c4:	b3 2e       	mov	r11, r19
    10c6:	04 2f       	mov	r16, r20
    10c8:	15 2f       	mov	r17, r21
    10ca:	66 2e       	mov	r6, r22
    10cc:	77 2e       	mov	r7, r23
    10ce:	88 2e       	mov	r8, r24
    10d0:	99 2e       	mov	r9, r25
    10d2:	42 2f       	mov	r20, r18
    10d4:	5b 2d       	mov	r21, r11
    10d6:	60 2f       	mov	r22, r16
    10d8:	71 2f       	mov	r23, r17
    10da:	8b 81       	ldd	r24, Y+3	; 0x03
    10dc:	9c 81       	ldd	r25, Y+4	; 0x04
    10de:	0e 94 ec 05 	call	0xbd8	; 0xbd8 <_Z17addIntToStringEndPcm>
    10e2:	2a 2d       	mov	r18, r10
    10e4:	3b 2d       	mov	r19, r11
    10e6:	40 2f       	mov	r20, r16
    10e8:	51 2f       	mov	r21, r17
    10ea:	66 2d       	mov	r22, r6
    10ec:	77 2d       	mov	r23, r7
    10ee:	88 2d       	mov	r24, r8
    10f0:	99 2d       	mov	r25, r9
    10f2:	0e 94 c0 0f 	call	0x1f80	; 0x1f80 <__floatundisf>
    10f6:	9b 01       	movw	r18, r22
    10f8:	ac 01       	movw	r20, r24
    10fa:	c7 01       	movw	r24, r14
    10fc:	b6 01       	movw	r22, r12
    10fe:	0e 94 2e 0e 	call	0x1c5c	; 0x1c5c <__subsf3>
    1102:	6b 01       	movw	r12, r22
    1104:	7c 01       	movw	r14, r24
    1106:	8b 85       	ldd	r24, Y+11	; 0x0b
    1108:	9c 85       	ldd	r25, Y+12	; 0x0c
    110a:	01 96       	adiw	r24, 0x01	; 1
    110c:	9c 87       	std	Y+12, r25	; 0x0c
    110e:	8b 87       	std	Y+11, r24	; 0x0b
    1110:	05 97       	sbiw	r24, 0x05	; 5
    1112:	09 f6       	brne	.-126    	; 0x1096 <_Z14numAllToStringdPc+0x17a>
    1114:	89 85       	ldd	r24, Y+9	; 0x09
    1116:	9a 85       	ldd	r25, Y+10	; 0x0a
    1118:	01 97       	sbiw	r24, 0x01	; 1
    111a:	29 f4       	brne	.+10     	; 0x1126 <_Z14numAllToStringdPc+0x20a>
    111c:	6d e2       	ldi	r22, 0x2D	; 45
    111e:	8b 81       	ldd	r24, Y+3	; 0x03
    1120:	9c 81       	ldd	r25, Y+4	; 0x04
    1122:	0e 94 25 06 	call	0xc4a	; 0xc4a <_Z20addCharToStringStartPcc>
    1126:	2d 96       	adiw	r28, 0x0d	; 13
    1128:	0f b6       	in	r0, 0x3f	; 63
    112a:	f8 94       	cli
    112c:	de bf       	out	0x3e, r29	; 62
    112e:	0f be       	out	0x3f, r0	; 63
    1130:	cd bf       	out	0x3d, r28	; 61
    1132:	df 91       	pop	r29
    1134:	cf 91       	pop	r28
    1136:	1f 91       	pop	r17
    1138:	0f 91       	pop	r16
    113a:	ff 90       	pop	r15
    113c:	ef 90       	pop	r14
    113e:	df 90       	pop	r13
    1140:	cf 90       	pop	r12
    1142:	bf 90       	pop	r11
    1144:	af 90       	pop	r10
    1146:	9f 90       	pop	r9
    1148:	8f 90       	pop	r8
    114a:	7f 90       	pop	r7
    114c:	6f 90       	pop	r6
    114e:	5f 90       	pop	r5
    1150:	4f 90       	pop	r4
    1152:	3f 90       	pop	r3
    1154:	2f 90       	pop	r2
    1156:	08 95       	ret

00001158 <_Z11numToStringdPc>:
    1158:	6f 92       	push	r6
    115a:	7f 92       	push	r7
    115c:	8f 92       	push	r8
    115e:	9f 92       	push	r9
    1160:	af 92       	push	r10
    1162:	bf 92       	push	r11
    1164:	cf 92       	push	r12
    1166:	df 92       	push	r13
    1168:	ef 92       	push	r14
    116a:	ff 92       	push	r15
    116c:	0f 93       	push	r16
    116e:	1f 93       	push	r17
    1170:	cf 93       	push	r28
    1172:	df 93       	push	r29
    1174:	6b 01       	movw	r12, r22
    1176:	7c 01       	movw	r14, r24
    1178:	8a 01       	movw	r16, r20
    117a:	0e 94 17 0f 	call	0x1e2e	; 0x1e2e <__fixunssfdi>
    117e:	62 2e       	mov	r6, r18
    1180:	73 2e       	mov	r7, r19
    1182:	84 2e       	mov	r8, r20
    1184:	95 2e       	mov	r9, r21
    1186:	a6 2e       	mov	r10, r22
    1188:	b7 2e       	mov	r11, r23
    118a:	d8 2f       	mov	r29, r24
    118c:	c9 2f       	mov	r28, r25
    118e:	0e 94 c0 0f 	call	0x1f80	; 0x1f80 <__floatundisf>
    1192:	9b 01       	movw	r18, r22
    1194:	ac 01       	movw	r20, r24
    1196:	c7 01       	movw	r24, r14
    1198:	b6 01       	movw	r22, r12
    119a:	0e 94 2e 0e 	call	0x1c5c	; 0x1c5c <__subsf3>
    119e:	20 e0       	ldi	r18, 0x00	; 0
    11a0:	30 e0       	ldi	r19, 0x00	; 0
    11a2:	a9 01       	movw	r20, r18
    11a4:	0e 94 9b 0e 	call	0x1d36	; 0x1d36 <__cmpsf2>
    11a8:	81 11       	cpse	r24, r1
    11aa:	0b c0       	rjmp	.+22     	; 0x11c2 <_Z11numToStringdPc+0x6a>
    11ac:	26 2d       	mov	r18, r6
    11ae:	37 2d       	mov	r19, r7
    11b0:	48 2d       	mov	r20, r8
    11b2:	59 2d       	mov	r21, r9
    11b4:	6a 2d       	mov	r22, r10
    11b6:	7b 2d       	mov	r23, r11
    11b8:	8d 2f       	mov	r24, r29
    11ba:	9c 2f       	mov	r25, r28
    11bc:	0e 94 2e 07 	call	0xe5c	; 0xe5c <_Z14numAllToStringyPc>
    11c0:	05 c0       	rjmp	.+10     	; 0x11cc <_Z11numToStringdPc+0x74>
    11c2:	a8 01       	movw	r20, r16
    11c4:	c7 01       	movw	r24, r14
    11c6:	b6 01       	movw	r22, r12
    11c8:	0e 94 8e 07 	call	0xf1c	; 0xf1c <_Z14numAllToStringdPc>
    11cc:	df 91       	pop	r29
    11ce:	cf 91       	pop	r28
    11d0:	1f 91       	pop	r17
    11d2:	0f 91       	pop	r16
    11d4:	ff 90       	pop	r15
    11d6:	ef 90       	pop	r14
    11d8:	df 90       	pop	r13
    11da:	cf 90       	pop	r12
    11dc:	bf 90       	pop	r11
    11de:	af 90       	pop	r10
    11e0:	9f 90       	pop	r9
    11e2:	8f 90       	pop	r8
    11e4:	7f 90       	pop	r7
    11e6:	6f 90       	pop	r6
    11e8:	08 95       	ret

000011ea <_Z9stringlenPKc>:
}


uint16_t stringlen(const char *str) {
    11ea:	ac 01       	movw	r20, r24
	uint16_t length = 0;
    11ec:	80 e0       	ldi	r24, 0x00	; 0
    11ee:	90 e0       	ldi	r25, 0x00	; 0
	while (str[length] != '\0') {
    11f0:	fa 01       	movw	r30, r20
    11f2:	e8 0f       	add	r30, r24
    11f4:	f9 1f       	adc	r31, r25
    11f6:	20 81       	ld	r18, Z
    11f8:	22 23       	and	r18, r18
    11fa:	11 f0       	breq	.+4      	; 0x1200 <_Z9stringlenPKc+0x16>
		length++;
    11fc:	01 96       	adiw	r24, 0x01	; 1
}


uint16_t stringlen(const char *str) {
	uint16_t length = 0;
	while (str[length] != '\0') {
    11fe:	f8 cf       	rjmp	.-16     	; 0x11f0 <_Z9stringlenPKc+0x6>
		length++;
	}
	return length;
}
    1200:	08 95       	ret

00001202 <_Z11coppyStringPcPKc>:

void coppyString(char *cop, const char *str) {
    1202:	dc 01       	movw	r26, r24
	int i = 0;
    1204:	20 e0       	ldi	r18, 0x00	; 0
    1206:	30 e0       	ldi	r19, 0x00	; 0
	while (str[i] != '\0') {
    1208:	fb 01       	movw	r30, r22
    120a:	e2 0f       	add	r30, r18
    120c:	f3 1f       	adc	r31, r19
    120e:	90 81       	ld	r25, Z
    1210:	99 23       	and	r25, r25
    1212:	39 f0       	breq	.+14     	; 0x1222 <_Z11coppyStringPcPKc+0x20>
		cop[i] = str[i];
    1214:	fd 01       	movw	r30, r26
    1216:	e2 0f       	add	r30, r18
    1218:	f3 1f       	adc	r31, r19
    121a:	90 83       	st	Z, r25
		i++;
    121c:	2f 5f       	subi	r18, 0xFF	; 255
    121e:	3f 4f       	sbci	r19, 0xFF	; 255
	return length;
}

void coppyString(char *cop, const char *str) {
	int i = 0;
	while (str[i] != '\0') {
    1220:	f3 cf       	rjmp	.-26     	; 0x1208 <_Z11coppyStringPcPKc+0x6>
		cop[i] = str[i];
		i++;
	}
	cop[i] = '\0'; // ??m b?o k?t thúc chu?i ?ích
    1222:	fd 01       	movw	r30, r26
    1224:	e2 0f       	add	r30, r18
    1226:	f3 1f       	adc	r31, r19
    1228:	10 82       	st	Z, r1
    122a:	08 95       	ret

0000122c <_Z16printKeypadToLCDv>:
// }

void printKeypadToLCD() {
	int8_t key;
	int8_t flag = 0;
	keypad_setup();
    122c:	0e 94 61 00 	call	0xc2	; 0xc2 <_Z12keypad_setupv>
// 	sprintf(str, "%d.%d", intPart, floatPart);
// }

void printKeypadToLCD() {
	int8_t key;
	int8_t flag = 0;
    1230:	c0 e0       	ldi	r28, 0x00	; 0
	keypad_setup();
	
	while (1) {

		key = keypad_read_buttons();
    1232:	0e 94 6b 00 	call	0xd6	; 0xd6 <_Z19keypad_read_buttonsv>
		switch (key) {
    1236:	e8 2f       	mov	r30, r24
    1238:	f0 e0       	ldi	r31, 0x00	; 0
    123a:	e8 31       	cpi	r30, 0x18	; 24
    123c:	f1 05       	cpc	r31, r1
    123e:	c8 f7       	brcc	.-14     	; 0x1232 <_Z16printKeypadToLCDv+0x6>
    1240:	e6 5d       	subi	r30, 0xD6	; 214
    1242:	ff 4f       	sbci	r31, 0xFF	; 255
    1244:	0c 94 f5 10 	jmp	0x21ea	; 0x21ea <__tablejump2__>
			case 0:
			memory = 0;
    1248:	10 92 8a 00 	sts	0x008A, r1	; 0x80008a <__data_end>
    124c:	10 92 8b 00 	sts	0x008B, r1	; 0x80008b <__data_end+0x1>
    1250:	10 92 8c 00 	sts	0x008C, r1	; 0x80008c <__data_end+0x2>
    1254:	10 92 8d 00 	sts	0x008D, r1	; 0x80008d <__data_end+0x3>
			// 				clear_last(string);
			// 				LCD_clear();
			// 				_delay_ms(2);
			break;
    1258:	ec cf       	rjmp	.-40     	; 0x1232 <_Z16printKeypadToLCDv+0x6>
			case 1:
			clear_string(string);
    125a:	80 eb       	ldi	r24, 0xB0	; 176
    125c:	90 e0       	ldi	r25, 0x00	; 0
    125e:	0e 94 8b 05 	call	0xb16	; 0xb16 <_Z12clear_stringPc>
			LCD_clear();
    1262:	0e 94 1e 05 	call	0xa3c	; 0xa3c <_Z9LCD_clearv>
    1266:	8f e9       	ldi	r24, 0x9F	; 159
    1268:	9f e0       	ldi	r25, 0x0F	; 15
    126a:	01 97       	sbiw	r24, 0x01	; 1
    126c:	f1 f7       	brne	.-4      	; 0x126a <_Z16printKeypadToLCDv+0x3e>
    126e:	00 c0       	rjmp	.+0      	; 0x1270 <_Z16printKeypadToLCDv+0x44>
    1270:	00 00       	nop
			_delay_ms(2);
			LCD_print("M");
    1272:	88 e6       	ldi	r24, 0x68	; 104
    1274:	90 e0       	ldi	r25, 0x00	; 0
    1276:	0e 94 43 05 	call	0xa86	; 0xa86 <_Z9LCD_printPKc>
			clear_string(string);
    127a:	80 eb       	ldi	r24, 0xB0	; 176
    127c:	90 e0       	ldi	r25, 0x00	; 0
    127e:	0e 94 8b 05 	call	0xb16	; 0xb16 <_Z12clear_stringPc>
			numToString(memory,string);
    1282:	60 91 8a 00 	lds	r22, 0x008A	; 0x80008a <__data_end>
    1286:	70 91 8b 00 	lds	r23, 0x008B	; 0x80008b <__data_end+0x1>
    128a:	80 91 8c 00 	lds	r24, 0x008C	; 0x80008c <__data_end+0x2>
    128e:	90 91 8d 00 	lds	r25, 0x008D	; 0x80008d <__data_end+0x3>
    1292:	40 eb       	ldi	r20, 0xB0	; 176
    1294:	50 e0       	ldi	r21, 0x00	; 0
    1296:	0e 94 ac 08 	call	0x1158	; 0x1158 <_Z11numToStringdPc>
			LCD_print_result(string);
    129a:	80 eb       	ldi	r24, 0xB0	; 176
    129c:	90 e0       	ldi	r25, 0x00	; 0
    129e:	0e 94 50 05 	call	0xaa0	; 0xaa0 <_Z16LCD_print_resultPKc>
    12a2:	8f e0       	ldi	r24, 0x0F	; 15
    12a4:	97 e2       	ldi	r25, 0x27	; 39
    12a6:	01 97       	sbiw	r24, 0x01	; 1
    12a8:	f1 f7       	brne	.-4      	; 0x12a6 <_Z16printKeypadToLCDv+0x7a>
    12aa:	00 c0       	rjmp	.+0      	; 0x12ac <_Z16printKeypadToLCDv+0x80>
    12ac:	00 00       	nop
			flag = 1;
    12ae:	c1 e0       	ldi	r28, 0x01	; 1
    12b0:	c0 cf       	rjmp	.-128    	; 0x1232 <_Z16printKeypadToLCDv+0x6>
			_delay_ms(5);
			break;
			case 2:
			if (checkErrorCalculations(string) == 1)
    12b2:	80 eb       	ldi	r24, 0xB0	; 176
    12b4:	90 e0       	ldi	r25, 0x00	; 0
    12b6:	0e 94 0f 04 	call	0x81e	; 0x81e <_Z22checkErrorCalculationsPKc>
    12ba:	01 97       	sbiw	r24, 0x01	; 1
    12bc:	59 f4       	brne	.+22     	; 0x12d4 <_Z16printKeypadToLCDv+0xa8>
			{
				LCD_print_result("ERROR");
    12be:	8a e6       	ldi	r24, 0x6A	; 106
    12c0:	90 e0       	ldi	r25, 0x00	; 0
    12c2:	0e 94 50 05 	call	0xaa0	; 0xaa0 <_Z16LCD_print_resultPKc>
    12c6:	8f e0       	ldi	r24, 0x0F	; 15
    12c8:	97 e2       	ldi	r25, 0x27	; 39
    12ca:	01 97       	sbiw	r24, 0x01	; 1
    12cc:	f1 f7       	brne	.-4      	; 0x12ca <_Z16printKeypadToLCDv+0x9e>
    12ce:	00 c0       	rjmp	.+0      	; 0x12d0 <_Z16printKeypadToLCDv+0xa4>
    12d0:	00 00       	nop
    12d2:	af cf       	rjmp	.-162    	; 0x1232 <_Z16printKeypadToLCDv+0x6>
				_delay_ms(5);
			}
			else
			{
				memory -= stringToNum(string);
    12d4:	80 eb       	ldi	r24, 0xB0	; 176
    12d6:	90 e0       	ldi	r25, 0x00	; 0
    12d8:	0e 94 5f 06 	call	0xcbe	; 0xcbe <_Z11stringToNumPKc>
    12dc:	9b 01       	movw	r18, r22
    12de:	ac 01       	movw	r20, r24
    12e0:	60 91 8a 00 	lds	r22, 0x008A	; 0x80008a <__data_end>
    12e4:	70 91 8b 00 	lds	r23, 0x008B	; 0x80008b <__data_end+0x1>
    12e8:	80 91 8c 00 	lds	r24, 0x008C	; 0x80008c <__data_end+0x2>
    12ec:	90 91 8d 00 	lds	r25, 0x008D	; 0x80008d <__data_end+0x3>
    12f0:	0e 94 2e 0e 	call	0x1c5c	; 0x1c5c <__subsf3>
    12f4:	60 93 8a 00 	sts	0x008A, r22	; 0x80008a <__data_end>
    12f8:	70 93 8b 00 	sts	0x008B, r23	; 0x80008b <__data_end+0x1>
    12fc:	80 93 8c 00 	sts	0x008C, r24	; 0x80008c <__data_end+0x2>
    1300:	90 93 8d 00 	sts	0x008D, r25	; 0x80008d <__data_end+0x3>
				flag = 1;
				LCD_print_result(string);
    1304:	80 eb       	ldi	r24, 0xB0	; 176
    1306:	90 e0       	ldi	r25, 0x00	; 0
    1308:	0e 94 50 05 	call	0xaa0	; 0xaa0 <_Z16LCD_print_resultPKc>
    130c:	8f e0       	ldi	r24, 0x0F	; 15
    130e:	97 e2       	ldi	r25, 0x27	; 39
    1310:	01 97       	sbiw	r24, 0x01	; 1
    1312:	f1 f7       	brne	.-4      	; 0x1310 <_Z16printKeypadToLCDv+0xe4>
    1314:	00 c0       	rjmp	.+0      	; 0x1316 <_Z16printKeypadToLCDv+0xea>
    1316:	00 00       	nop
				_delay_ms(5);
			}
			else
			{
				memory -= stringToNum(string);
				flag = 1;
    1318:	c1 e0       	ldi	r28, 0x01	; 1
    131a:	8b cf       	rjmp	.-234    	; 0x1232 <_Z16printKeypadToLCDv+0x6>
				_delay_ms(5);
			}
			
			break;
			case 3:
			if (checkErrorCalculations(string) == 1)
    131c:	80 eb       	ldi	r24, 0xB0	; 176
    131e:	90 e0       	ldi	r25, 0x00	; 0
    1320:	0e 94 0f 04 	call	0x81e	; 0x81e <_Z22checkErrorCalculationsPKc>
    1324:	01 97       	sbiw	r24, 0x01	; 1
    1326:	59 f4       	brne	.+22     	; 0x133e <_Z16printKeypadToLCDv+0x112>
			{
				LCD_print_result("ERROR");
    1328:	8a e6       	ldi	r24, 0x6A	; 106
    132a:	90 e0       	ldi	r25, 0x00	; 0
    132c:	0e 94 50 05 	call	0xaa0	; 0xaa0 <_Z16LCD_print_resultPKc>
    1330:	8f e0       	ldi	r24, 0x0F	; 15
    1332:	97 e2       	ldi	r25, 0x27	; 39
    1334:	01 97       	sbiw	r24, 0x01	; 1
    1336:	f1 f7       	brne	.-4      	; 0x1334 <_Z16printKeypadToLCDv+0x108>
    1338:	00 c0       	rjmp	.+0      	; 0x133a <_Z16printKeypadToLCDv+0x10e>
    133a:	00 00       	nop
    133c:	7a cf       	rjmp	.-268    	; 0x1232 <_Z16printKeypadToLCDv+0x6>
				_delay_ms(5);
			}
			else
			{
				memory += stringToNum(string);
    133e:	80 eb       	ldi	r24, 0xB0	; 176
    1340:	90 e0       	ldi	r25, 0x00	; 0
    1342:	0e 94 5f 06 	call	0xcbe	; 0xcbe <_Z11stringToNumPKc>
    1346:	9b 01       	movw	r18, r22
    1348:	ac 01       	movw	r20, r24
    134a:	60 91 8a 00 	lds	r22, 0x008A	; 0x80008a <__data_end>
    134e:	70 91 8b 00 	lds	r23, 0x008B	; 0x80008b <__data_end+0x1>
    1352:	80 91 8c 00 	lds	r24, 0x008C	; 0x80008c <__data_end+0x2>
    1356:	90 91 8d 00 	lds	r25, 0x008D	; 0x80008d <__data_end+0x3>
    135a:	0e 94 2f 0e 	call	0x1c5e	; 0x1c5e <__addsf3>
    135e:	60 93 8a 00 	sts	0x008A, r22	; 0x80008a <__data_end>
    1362:	70 93 8b 00 	sts	0x008B, r23	; 0x80008b <__data_end+0x1>
    1366:	80 93 8c 00 	sts	0x008C, r24	; 0x80008c <__data_end+0x2>
    136a:	90 93 8d 00 	sts	0x008D, r25	; 0x80008d <__data_end+0x3>
				flag = 1;
				LCD_print_result(string);
    136e:	80 eb       	ldi	r24, 0xB0	; 176
    1370:	90 e0       	ldi	r25, 0x00	; 0
    1372:	0e 94 50 05 	call	0xaa0	; 0xaa0 <_Z16LCD_print_resultPKc>
    1376:	8f e0       	ldi	r24, 0x0F	; 15
    1378:	97 e2       	ldi	r25, 0x27	; 39
    137a:	01 97       	sbiw	r24, 0x01	; 1
    137c:	f1 f7       	brne	.-4      	; 0x137a <_Z16printKeypadToLCDv+0x14e>
    137e:	00 c0       	rjmp	.+0      	; 0x1380 <_Z16printKeypadToLCDv+0x154>
    1380:	00 00       	nop
				_delay_ms(5);
			}
			else
			{
				memory += stringToNum(string);
				flag = 1;
    1382:	c1 e0       	ldi	r28, 0x01	; 1
    1384:	56 cf       	rjmp	.-340    	; 0x1232 <_Z16printKeypadToLCDv+0x6>
				LCD_print_result(string);
				_delay_ms(5);
			}
			break;
			case 4:
			clear_string(string);
    1386:	80 eb       	ldi	r24, 0xB0	; 176
    1388:	90 e0       	ldi	r25, 0x00	; 0
    138a:	0e 94 8b 05 	call	0xb16	; 0xb16 <_Z12clear_stringPc>
			clear_string(string1);
    138e:	82 e9       	ldi	r24, 0x92	; 146
    1390:	90 e0       	ldi	r25, 0x00	; 0
    1392:	0e 94 8b 05 	call	0xb16	; 0xb16 <_Z12clear_stringPc>
			LCD_clear();
    1396:	0e 94 1e 05 	call	0xa3c	; 0xa3c <_Z9LCD_clearv>
    139a:	8f e9       	ldi	r24, 0x9F	; 159
    139c:	9f e0       	ldi	r25, 0x0F	; 15
    139e:	01 97       	sbiw	r24, 0x01	; 1
    13a0:	f1 f7       	brne	.-4      	; 0x139e <_Z16printKeypadToLCDv+0x172>
    13a2:	00 c0       	rjmp	.+0      	; 0x13a4 <_Z16printKeypadToLCDv+0x178>
    13a4:	00 00       	nop
    13a6:	45 cf       	rjmp	.-374    	; 0x1232 <_Z16printKeypadToLCDv+0x6>
			_delay_ms(2);
			break;
			case 5:
			result *= -1;
    13a8:	80 91 8e 00 	lds	r24, 0x008E	; 0x80008e <result>
    13ac:	90 91 8f 00 	lds	r25, 0x008F	; 0x80008f <result+0x1>
    13b0:	a0 91 90 00 	lds	r26, 0x0090	; 0x800090 <result+0x2>
    13b4:	b0 91 91 00 	lds	r27, 0x0091	; 0x800091 <result+0x3>
    13b8:	b0 58       	subi	r27, 0x80	; 128
    13ba:	80 93 8e 00 	sts	0x008E, r24	; 0x80008e <result>
    13be:	90 93 8f 00 	sts	0x008F, r25	; 0x80008f <result+0x1>
    13c2:	a0 93 90 00 	sts	0x0090, r26	; 0x800090 <result+0x2>
    13c6:	b0 93 91 00 	sts	0x0091, r27	; 0x800091 <result+0x3>
			LCD_clear();
    13ca:	0e 94 1e 05 	call	0xa3c	; 0xa3c <_Z9LCD_clearv>
    13ce:	8f e9       	ldi	r24, 0x9F	; 159
    13d0:	9f e0       	ldi	r25, 0x0F	; 15
    13d2:	01 97       	sbiw	r24, 0x01	; 1
    13d4:	f1 f7       	brne	.-4      	; 0x13d2 <_Z16printKeypadToLCDv+0x1a6>
    13d6:	00 c0       	rjmp	.+0      	; 0x13d8 <_Z16printKeypadToLCDv+0x1ac>
    13d8:	00 00       	nop
			_delay_ms(2);
			LCD_print(string1);
    13da:	82 e9       	ldi	r24, 0x92	; 146
    13dc:	90 e0       	ldi	r25, 0x00	; 0
    13de:	0e 94 43 05 	call	0xa86	; 0xa86 <_Z9LCD_printPKc>
			clear_string(string);
    13e2:	80 eb       	ldi	r24, 0xB0	; 176
    13e4:	90 e0       	ldi	r25, 0x00	; 0
    13e6:	0e 94 8b 05 	call	0xb16	; 0xb16 <_Z12clear_stringPc>
			numToString(result, string);
    13ea:	60 91 8e 00 	lds	r22, 0x008E	; 0x80008e <result>
    13ee:	70 91 8f 00 	lds	r23, 0x008F	; 0x80008f <result+0x1>
    13f2:	80 91 90 00 	lds	r24, 0x0090	; 0x800090 <result+0x2>
    13f6:	90 91 91 00 	lds	r25, 0x0091	; 0x800091 <result+0x3>
    13fa:	40 eb       	ldi	r20, 0xB0	; 176
    13fc:	50 e0       	ldi	r21, 0x00	; 0
    13fe:	0e 94 ac 08 	call	0x1158	; 0x1158 <_Z11numToStringdPc>
			flag = 1;
			LCD_print_result(string);
    1402:	80 eb       	ldi	r24, 0xB0	; 176
    1404:	90 e0       	ldi	r25, 0x00	; 0
    1406:	0e 94 50 05 	call	0xaa0	; 0xaa0 <_Z16LCD_print_resultPKc>
    140a:	8f e6       	ldi	r24, 0x6F	; 111
    140c:	97 e1       	ldi	r25, 0x17	; 23
    140e:	01 97       	sbiw	r24, 0x01	; 1
    1410:	f1 f7       	brne	.-4      	; 0x140e <_Z16printKeypadToLCDv+0x1e2>
    1412:	00 c0       	rjmp	.+0      	; 0x1414 <_Z16printKeypadToLCDv+0x1e8>
    1414:	00 00       	nop
			LCD_clear();
			_delay_ms(2);
			LCD_print(string1);
			clear_string(string);
			numToString(result, string);
			flag = 1;
    1416:	c1 e0       	ldi	r28, 0x01	; 1
    1418:	0c cf       	rjmp	.-488    	; 0x1232 <_Z16printKeypadToLCDv+0x6>
			LCD_print_result(string);
			_delay_ms(3);
			break;
			case 6:
			if (stringlen(string) >= 15)
    141a:	80 eb       	ldi	r24, 0xB0	; 176
    141c:	90 e0       	ldi	r25, 0x00	; 0
    141e:	0e 94 f5 08 	call	0x11ea	; 0x11ea <_Z9stringlenPKc>
    1422:	0f 97       	sbiw	r24, 0x0f	; 15
    1424:	18 f0       	brcs	.+6      	; 0x142c <_Z16printKeypadToLCDv+0x200>
			{
				LCD_command(0x18);
    1426:	88 e1       	ldi	r24, 0x18	; 24
    1428:	0e 94 c0 04 	call	0x980	; 0x980 <_Z11LCD_commandh>
			}
			if (flag == 1)
    142c:	c1 30       	cpi	r28, 0x01	; 1
    142e:	c9 f4       	brne	.+50     	; 0x1462 <_Z16printKeypadToLCDv+0x236>
			{
				LCD_clear();
    1430:	0e 94 1e 05 	call	0xa3c	; 0xa3c <_Z9LCD_clearv>
    1434:	8f e9       	ldi	r24, 0x9F	; 159
    1436:	9f e0       	ldi	r25, 0x0F	; 15
    1438:	01 97       	sbiw	r24, 0x01	; 1
    143a:	f1 f7       	brne	.-4      	; 0x1438 <_Z16printKeypadToLCDv+0x20c>
    143c:	00 c0       	rjmp	.+0      	; 0x143e <_Z16printKeypadToLCDv+0x212>
    143e:	00 00       	nop
				_delay_ms(2);
				clear_string(string);
    1440:	80 eb       	ldi	r24, 0xB0	; 176
    1442:	90 e0       	ldi	r25, 0x00	; 0
    1444:	0e 94 8b 05 	call	0xb16	; 0xb16 <_Z12clear_stringPc>
				clear_string(string1);
    1448:	82 e9       	ldi	r24, 0x92	; 146
    144a:	90 e0       	ldi	r25, 0x00	; 0
    144c:	0e 94 8b 05 	call	0xb16	; 0xb16 <_Z12clear_stringPc>
				result = 0;
    1450:	10 92 8e 00 	sts	0x008E, r1	; 0x80008e <result>
    1454:	10 92 8f 00 	sts	0x008F, r1	; 0x80008f <result+0x1>
    1458:	10 92 90 00 	sts	0x0090, r1	; 0x800090 <result+0x2>
    145c:	10 92 91 00 	sts	0x0091, r1	; 0x800091 <result+0x3>
				flag = 0;
    1460:	c0 e0       	ldi	r28, 0x00	; 0
			}
			LCD_print_char(0x25);
    1462:	85 e2       	ldi	r24, 0x25	; 37
    1464:	0e 94 7b 05 	call	0xaf6	; 0xaf6 <_Z14LCD_print_charc>
    1468:	8f e0       	ldi	r24, 0x0F	; 15
    146a:	97 e2       	ldi	r25, 0x27	; 39
    146c:	01 97       	sbiw	r24, 0x01	; 1
    146e:	f1 f7       	brne	.-4      	; 0x146c <_Z16printKeypadToLCDv+0x240>
    1470:	00 c0       	rjmp	.+0      	; 0x1472 <_Z16printKeypadToLCDv+0x246>
    1472:	00 00       	nop
			_delay_ms(5);
			addCharToStringEnd(string, 37);
    1474:	65 e2       	ldi	r22, 0x25	; 37
    1476:	80 eb       	ldi	r24, 0xB0	; 176
    1478:	90 e0       	ldi	r25, 0x00	; 0
    147a:	0e 94 4a 06 	call	0xc94	; 0xc94 <_Z18addCharToStringEndPcc>
			break;
    147e:	d9 ce       	rjmp	.-590    	; 0x1232 <_Z16printKeypadToLCDv+0x6>
			case 7:
			if (flag == 1)
    1480:	c1 30       	cpi	r28, 0x01	; 1
    1482:	c9 f4       	brne	.+50     	; 0x14b6 <_Z16printKeypadToLCDv+0x28a>
			{
				LCD_clear();
    1484:	0e 94 1e 05 	call	0xa3c	; 0xa3c <_Z9LCD_clearv>
    1488:	8f e9       	ldi	r24, 0x9F	; 159
    148a:	9f e0       	ldi	r25, 0x0F	; 15
    148c:	01 97       	sbiw	r24, 0x01	; 1
    148e:	f1 f7       	brne	.-4      	; 0x148c <_Z16printKeypadToLCDv+0x260>
    1490:	00 c0       	rjmp	.+0      	; 0x1492 <_Z16printKeypadToLCDv+0x266>
    1492:	00 00       	nop
				_delay_ms(2);
				clear_string(string);
    1494:	80 eb       	ldi	r24, 0xB0	; 176
    1496:	90 e0       	ldi	r25, 0x00	; 0
    1498:	0e 94 8b 05 	call	0xb16	; 0xb16 <_Z12clear_stringPc>
				clear_string(string1);
    149c:	82 e9       	ldi	r24, 0x92	; 146
    149e:	90 e0       	ldi	r25, 0x00	; 0
    14a0:	0e 94 8b 05 	call	0xb16	; 0xb16 <_Z12clear_stringPc>
				result = 0;
    14a4:	10 92 8e 00 	sts	0x008E, r1	; 0x80008e <result>
    14a8:	10 92 8f 00 	sts	0x008F, r1	; 0x80008f <result+0x1>
    14ac:	10 92 90 00 	sts	0x0090, r1	; 0x800090 <result+0x2>
    14b0:	10 92 91 00 	sts	0x0091, r1	; 0x800091 <result+0x3>
				flag = 0;
    14b4:	c0 e0       	ldi	r28, 0x00	; 0
			}
			if (stringlen(string) >= 15)
    14b6:	80 eb       	ldi	r24, 0xB0	; 176
    14b8:	90 e0       	ldi	r25, 0x00	; 0
    14ba:	0e 94 f5 08 	call	0x11ea	; 0x11ea <_Z9stringlenPKc>
    14be:	0f 97       	sbiw	r24, 0x0f	; 15
    14c0:	18 f0       	brcs	.+6      	; 0x14c8 <_Z16printKeypadToLCDv+0x29c>
			{
				LCD_command(0x18);
    14c2:	88 e1       	ldi	r24, 0x18	; 24
    14c4:	0e 94 c0 04 	call	0x980	; 0x980 <_Z11LCD_commandh>
			}
			LCD_print_char(0xE8);
    14c8:	88 ee       	ldi	r24, 0xE8	; 232
    14ca:	0e 94 7b 05 	call	0xaf6	; 0xaf6 <_Z14LCD_print_charc>
    14ce:	8f e0       	ldi	r24, 0x0F	; 15
    14d0:	97 e2       	ldi	r25, 0x27	; 39
    14d2:	01 97       	sbiw	r24, 0x01	; 1
    14d4:	f1 f7       	brne	.-4      	; 0x14d2 <_Z16printKeypadToLCDv+0x2a6>
    14d6:	00 c0       	rjmp	.+0      	; 0x14d8 <_Z16printKeypadToLCDv+0x2ac>
    14d8:	00 00       	nop
			_delay_ms(5);
			addCharToStringEnd(string, 94);
    14da:	6e e5       	ldi	r22, 0x5E	; 94
    14dc:	80 eb       	ldi	r24, 0xB0	; 176
    14de:	90 e0       	ldi	r25, 0x00	; 0
    14e0:	0e 94 4a 06 	call	0xc94	; 0xc94 <_Z18addCharToStringEndPcc>
			break;
    14e4:	a6 ce       	rjmp	.-692    	; 0x1232 <_Z16printKeypadToLCDv+0x6>
			case 8:
			if (flag == 1)
    14e6:	c1 30       	cpi	r28, 0x01	; 1
    14e8:	c9 f4       	brne	.+50     	; 0x151c <_Z16printKeypadToLCDv+0x2f0>
			{
				LCD_clear();
    14ea:	0e 94 1e 05 	call	0xa3c	; 0xa3c <_Z9LCD_clearv>
    14ee:	8f e9       	ldi	r24, 0x9F	; 159
    14f0:	9f e0       	ldi	r25, 0x0F	; 15
    14f2:	01 97       	sbiw	r24, 0x01	; 1
    14f4:	f1 f7       	brne	.-4      	; 0x14f2 <_Z16printKeypadToLCDv+0x2c6>
    14f6:	00 c0       	rjmp	.+0      	; 0x14f8 <_Z16printKeypadToLCDv+0x2cc>
    14f8:	00 00       	nop
				_delay_ms(2);
				clear_string(string);
    14fa:	80 eb       	ldi	r24, 0xB0	; 176
    14fc:	90 e0       	ldi	r25, 0x00	; 0
    14fe:	0e 94 8b 05 	call	0xb16	; 0xb16 <_Z12clear_stringPc>
				clear_string(string1);
    1502:	82 e9       	ldi	r24, 0x92	; 146
    1504:	90 e0       	ldi	r25, 0x00	; 0
    1506:	0e 94 8b 05 	call	0xb16	; 0xb16 <_Z12clear_stringPc>
				result = 0;
    150a:	10 92 8e 00 	sts	0x008E, r1	; 0x80008e <result>
    150e:	10 92 8f 00 	sts	0x008F, r1	; 0x80008f <result+0x1>
    1512:	10 92 90 00 	sts	0x0090, r1	; 0x800090 <result+0x2>
    1516:	10 92 91 00 	sts	0x0091, r1	; 0x800091 <result+0x3>
				flag = 0;
    151a:	c0 e0       	ldi	r28, 0x00	; 0
			}
			if (stringlen(string) >= 15)
    151c:	80 eb       	ldi	r24, 0xB0	; 176
    151e:	90 e0       	ldi	r25, 0x00	; 0
    1520:	0e 94 f5 08 	call	0x11ea	; 0x11ea <_Z9stringlenPKc>
    1524:	0f 97       	sbiw	r24, 0x0f	; 15
    1526:	18 f0       	brcs	.+6      	; 0x152e <_Z16printKeypadToLCDv+0x302>
			{
				LCD_command(0x18);
    1528:	88 e1       	ldi	r24, 0x18	; 24
    152a:	0e 94 c0 04 	call	0x980	; 0x980 <_Z11LCD_commandh>
			}
			LCD_print_last("7");
    152e:	80 e7       	ldi	r24, 0x70	; 112
    1530:	90 e0       	ldi	r25, 0x00	; 0
    1532:	0e 94 7e 05 	call	0xafc	; 0xafc <_Z14LCD_print_lastPKc>
    1536:	8f e0       	ldi	r24, 0x0F	; 15
    1538:	97 e2       	ldi	r25, 0x27	; 39
    153a:	01 97       	sbiw	r24, 0x01	; 1
    153c:	f1 f7       	brne	.-4      	; 0x153a <_Z16printKeypadToLCDv+0x30e>
    153e:	00 c0       	rjmp	.+0      	; 0x1540 <_Z16printKeypadToLCDv+0x314>
    1540:	00 00       	nop
			_delay_ms(5);
			addIntToStringEnd(string, 7);
    1542:	47 e0       	ldi	r20, 0x07	; 7
    1544:	50 e0       	ldi	r21, 0x00	; 0
    1546:	60 e0       	ldi	r22, 0x00	; 0
    1548:	70 e0       	ldi	r23, 0x00	; 0
    154a:	80 eb       	ldi	r24, 0xB0	; 176
    154c:	90 e0       	ldi	r25, 0x00	; 0
    154e:	0e 94 ec 05 	call	0xbd8	; 0xbd8 <_Z17addIntToStringEndPcm>
			break;
    1552:	6f ce       	rjmp	.-802    	; 0x1232 <_Z16printKeypadToLCDv+0x6>
			case 9:
			if (flag == 1)
    1554:	c1 30       	cpi	r28, 0x01	; 1
    1556:	c9 f4       	brne	.+50     	; 0x158a <_Z16printKeypadToLCDv+0x35e>
			{
				LCD_clear();
    1558:	0e 94 1e 05 	call	0xa3c	; 0xa3c <_Z9LCD_clearv>
    155c:	8f e9       	ldi	r24, 0x9F	; 159
    155e:	9f e0       	ldi	r25, 0x0F	; 15
    1560:	01 97       	sbiw	r24, 0x01	; 1
    1562:	f1 f7       	brne	.-4      	; 0x1560 <_Z16printKeypadToLCDv+0x334>
    1564:	00 c0       	rjmp	.+0      	; 0x1566 <_Z16printKeypadToLCDv+0x33a>
    1566:	00 00       	nop
				_delay_ms(2);
				clear_string(string);
    1568:	80 eb       	ldi	r24, 0xB0	; 176
    156a:	90 e0       	ldi	r25, 0x00	; 0
    156c:	0e 94 8b 05 	call	0xb16	; 0xb16 <_Z12clear_stringPc>
				clear_string(string1);
    1570:	82 e9       	ldi	r24, 0x92	; 146
    1572:	90 e0       	ldi	r25, 0x00	; 0
    1574:	0e 94 8b 05 	call	0xb16	; 0xb16 <_Z12clear_stringPc>
				result = 0;
    1578:	10 92 8e 00 	sts	0x008E, r1	; 0x80008e <result>
    157c:	10 92 8f 00 	sts	0x008F, r1	; 0x80008f <result+0x1>
    1580:	10 92 90 00 	sts	0x0090, r1	; 0x800090 <result+0x2>
    1584:	10 92 91 00 	sts	0x0091, r1	; 0x800091 <result+0x3>
				flag = 0;
    1588:	c0 e0       	ldi	r28, 0x00	; 0
			}
			if (stringlen(string) >= 15)
    158a:	80 eb       	ldi	r24, 0xB0	; 176
    158c:	90 e0       	ldi	r25, 0x00	; 0
    158e:	0e 94 f5 08 	call	0x11ea	; 0x11ea <_Z9stringlenPKc>
    1592:	0f 97       	sbiw	r24, 0x0f	; 15
    1594:	18 f0       	brcs	.+6      	; 0x159c <_Z16printKeypadToLCDv+0x370>
			{
				LCD_command(0x18);
    1596:	88 e1       	ldi	r24, 0x18	; 24
    1598:	0e 94 c0 04 	call	0x980	; 0x980 <_Z11LCD_commandh>
			}
			LCD_print("8");
    159c:	82 e7       	ldi	r24, 0x72	; 114
    159e:	90 e0       	ldi	r25, 0x00	; 0
    15a0:	0e 94 43 05 	call	0xa86	; 0xa86 <_Z9LCD_printPKc>
    15a4:	8f e0       	ldi	r24, 0x0F	; 15
    15a6:	97 e2       	ldi	r25, 0x27	; 39
    15a8:	01 97       	sbiw	r24, 0x01	; 1
    15aa:	f1 f7       	brne	.-4      	; 0x15a8 <_Z16printKeypadToLCDv+0x37c>
    15ac:	00 c0       	rjmp	.+0      	; 0x15ae <_Z16printKeypadToLCDv+0x382>
    15ae:	00 00       	nop
			_delay_ms(5);
			addIntToStringEnd(string, 8);
    15b0:	48 e0       	ldi	r20, 0x08	; 8
    15b2:	50 e0       	ldi	r21, 0x00	; 0
    15b4:	60 e0       	ldi	r22, 0x00	; 0
    15b6:	70 e0       	ldi	r23, 0x00	; 0
    15b8:	80 eb       	ldi	r24, 0xB0	; 176
    15ba:	90 e0       	ldi	r25, 0x00	; 0
    15bc:	0e 94 ec 05 	call	0xbd8	; 0xbd8 <_Z17addIntToStringEndPcm>
			break;
    15c0:	38 ce       	rjmp	.-912    	; 0x1232 <_Z16printKeypadToLCDv+0x6>
			case 10:
			if (flag == 1)
    15c2:	c1 30       	cpi	r28, 0x01	; 1
    15c4:	c9 f4       	brne	.+50     	; 0x15f8 <_Z16printKeypadToLCDv+0x3cc>
			{
				LCD_clear();
    15c6:	0e 94 1e 05 	call	0xa3c	; 0xa3c <_Z9LCD_clearv>
    15ca:	8f e9       	ldi	r24, 0x9F	; 159
    15cc:	9f e0       	ldi	r25, 0x0F	; 15
    15ce:	01 97       	sbiw	r24, 0x01	; 1
    15d0:	f1 f7       	brne	.-4      	; 0x15ce <_Z16printKeypadToLCDv+0x3a2>
    15d2:	00 c0       	rjmp	.+0      	; 0x15d4 <_Z16printKeypadToLCDv+0x3a8>
    15d4:	00 00       	nop
				_delay_ms(2);
				clear_string(string);
    15d6:	80 eb       	ldi	r24, 0xB0	; 176
    15d8:	90 e0       	ldi	r25, 0x00	; 0
    15da:	0e 94 8b 05 	call	0xb16	; 0xb16 <_Z12clear_stringPc>
				clear_string(string1);
    15de:	82 e9       	ldi	r24, 0x92	; 146
    15e0:	90 e0       	ldi	r25, 0x00	; 0
    15e2:	0e 94 8b 05 	call	0xb16	; 0xb16 <_Z12clear_stringPc>
				result = 0;
    15e6:	10 92 8e 00 	sts	0x008E, r1	; 0x80008e <result>
    15ea:	10 92 8f 00 	sts	0x008F, r1	; 0x80008f <result+0x1>
    15ee:	10 92 90 00 	sts	0x0090, r1	; 0x800090 <result+0x2>
    15f2:	10 92 91 00 	sts	0x0091, r1	; 0x800091 <result+0x3>
				flag = 0;
    15f6:	c0 e0       	ldi	r28, 0x00	; 0
			}
			if (stringlen(string) >= 15)
    15f8:	80 eb       	ldi	r24, 0xB0	; 176
    15fa:	90 e0       	ldi	r25, 0x00	; 0
    15fc:	0e 94 f5 08 	call	0x11ea	; 0x11ea <_Z9stringlenPKc>
    1600:	0f 97       	sbiw	r24, 0x0f	; 15
    1602:	18 f0       	brcs	.+6      	; 0x160a <_Z16printKeypadToLCDv+0x3de>
			{
				LCD_command(0x18);
    1604:	88 e1       	ldi	r24, 0x18	; 24
    1606:	0e 94 c0 04 	call	0x980	; 0x980 <_Z11LCD_commandh>
			}
			LCD_print("9");
    160a:	84 e7       	ldi	r24, 0x74	; 116
    160c:	90 e0       	ldi	r25, 0x00	; 0
    160e:	0e 94 43 05 	call	0xa86	; 0xa86 <_Z9LCD_printPKc>
    1612:	8f e0       	ldi	r24, 0x0F	; 15
    1614:	97 e2       	ldi	r25, 0x27	; 39
    1616:	01 97       	sbiw	r24, 0x01	; 1
    1618:	f1 f7       	brne	.-4      	; 0x1616 <_Z16printKeypadToLCDv+0x3ea>
    161a:	00 c0       	rjmp	.+0      	; 0x161c <_Z16printKeypadToLCDv+0x3f0>
    161c:	00 00       	nop
			_delay_ms(5);
			addIntToStringEnd(string, 9);
    161e:	49 e0       	ldi	r20, 0x09	; 9
    1620:	50 e0       	ldi	r21, 0x00	; 0
    1622:	60 e0       	ldi	r22, 0x00	; 0
    1624:	70 e0       	ldi	r23, 0x00	; 0
    1626:	80 eb       	ldi	r24, 0xB0	; 176
    1628:	90 e0       	ldi	r25, 0x00	; 0
    162a:	0e 94 ec 05 	call	0xbd8	; 0xbd8 <_Z17addIntToStringEndPcm>
			break;
    162e:	01 ce       	rjmp	.-1022   	; 0x1232 <_Z16printKeypadToLCDv+0x6>
			case 11:
			if (flag == 1)
    1630:	c1 30       	cpi	r28, 0x01	; 1
    1632:	c9 f4       	brne	.+50     	; 0x1666 <_Z16printKeypadToLCDv+0x43a>
			{
				LCD_clear();
    1634:	0e 94 1e 05 	call	0xa3c	; 0xa3c <_Z9LCD_clearv>
    1638:	8f e9       	ldi	r24, 0x9F	; 159
    163a:	9f e0       	ldi	r25, 0x0F	; 15
    163c:	01 97       	sbiw	r24, 0x01	; 1
    163e:	f1 f7       	brne	.-4      	; 0x163c <_Z16printKeypadToLCDv+0x410>
    1640:	00 c0       	rjmp	.+0      	; 0x1642 <_Z16printKeypadToLCDv+0x416>
    1642:	00 00       	nop
				_delay_ms(2);
				clear_string(string);
    1644:	80 eb       	ldi	r24, 0xB0	; 176
    1646:	90 e0       	ldi	r25, 0x00	; 0
    1648:	0e 94 8b 05 	call	0xb16	; 0xb16 <_Z12clear_stringPc>
				clear_string(string1);
    164c:	82 e9       	ldi	r24, 0x92	; 146
    164e:	90 e0       	ldi	r25, 0x00	; 0
    1650:	0e 94 8b 05 	call	0xb16	; 0xb16 <_Z12clear_stringPc>
				result = 0;
    1654:	10 92 8e 00 	sts	0x008E, r1	; 0x80008e <result>
    1658:	10 92 8f 00 	sts	0x008F, r1	; 0x80008f <result+0x1>
    165c:	10 92 90 00 	sts	0x0090, r1	; 0x800090 <result+0x2>
    1660:	10 92 91 00 	sts	0x0091, r1	; 0x800091 <result+0x3>
				flag = 0;
    1664:	c0 e0       	ldi	r28, 0x00	; 0
			}
			if (stringlen(string) >= 15)
    1666:	80 eb       	ldi	r24, 0xB0	; 176
    1668:	90 e0       	ldi	r25, 0x00	; 0
    166a:	0e 94 f5 08 	call	0x11ea	; 0x11ea <_Z9stringlenPKc>
    166e:	0f 97       	sbiw	r24, 0x0f	; 15
    1670:	18 f0       	brcs	.+6      	; 0x1678 <_Z16printKeypadToLCDv+0x44c>
			{
				LCD_command(0x18);
    1672:	88 e1       	ldi	r24, 0x18	; 24
    1674:	0e 94 c0 04 	call	0x980	; 0x980 <_Z11LCD_commandh>
			}
			LCD_print_char(0xFD);
    1678:	8d ef       	ldi	r24, 0xFD	; 253
    167a:	0e 94 7b 05 	call	0xaf6	; 0xaf6 <_Z14LCD_print_charc>
    167e:	8f e0       	ldi	r24, 0x0F	; 15
    1680:	97 e2       	ldi	r25, 0x27	; 39
    1682:	01 97       	sbiw	r24, 0x01	; 1
    1684:	f1 f7       	brne	.-4      	; 0x1682 <_Z16printKeypadToLCDv+0x456>
    1686:	00 c0       	rjmp	.+0      	; 0x1688 <_Z16printKeypadToLCDv+0x45c>
    1688:	00 00       	nop
			_delay_ms(5);
			addCharToStringEnd(string, 47);
    168a:	6f e2       	ldi	r22, 0x2F	; 47
    168c:	80 eb       	ldi	r24, 0xB0	; 176
    168e:	90 e0       	ldi	r25, 0x00	; 0
    1690:	0e 94 4a 06 	call	0xc94	; 0xc94 <_Z18addCharToStringEndPcc>
			break;
    1694:	ce cd       	rjmp	.-1124   	; 0x1232 <_Z16printKeypadToLCDv+0x6>
			case 12:
			if (flag == 1)
    1696:	c1 30       	cpi	r28, 0x01	; 1
    1698:	c9 f4       	brne	.+50     	; 0x16cc <_Z16printKeypadToLCDv+0x4a0>
			{
				LCD_clear();
    169a:	0e 94 1e 05 	call	0xa3c	; 0xa3c <_Z9LCD_clearv>
    169e:	8f e9       	ldi	r24, 0x9F	; 159
    16a0:	9f e0       	ldi	r25, 0x0F	; 15
    16a2:	01 97       	sbiw	r24, 0x01	; 1
    16a4:	f1 f7       	brne	.-4      	; 0x16a2 <_Z16printKeypadToLCDv+0x476>
    16a6:	00 c0       	rjmp	.+0      	; 0x16a8 <_Z16printKeypadToLCDv+0x47c>
    16a8:	00 00       	nop
				_delay_ms(2);
				clear_string(string);
    16aa:	80 eb       	ldi	r24, 0xB0	; 176
    16ac:	90 e0       	ldi	r25, 0x00	; 0
    16ae:	0e 94 8b 05 	call	0xb16	; 0xb16 <_Z12clear_stringPc>
				clear_string(string1);
    16b2:	82 e9       	ldi	r24, 0x92	; 146
    16b4:	90 e0       	ldi	r25, 0x00	; 0
    16b6:	0e 94 8b 05 	call	0xb16	; 0xb16 <_Z12clear_stringPc>
				result = 0;
    16ba:	10 92 8e 00 	sts	0x008E, r1	; 0x80008e <result>
    16be:	10 92 8f 00 	sts	0x008F, r1	; 0x80008f <result+0x1>
    16c2:	10 92 90 00 	sts	0x0090, r1	; 0x800090 <result+0x2>
    16c6:	10 92 91 00 	sts	0x0091, r1	; 0x800091 <result+0x3>
				flag = 0;
    16ca:	c0 e0       	ldi	r28, 0x00	; 0
			}
			if (stringlen(string) >= 15)
    16cc:	80 eb       	ldi	r24, 0xB0	; 176
    16ce:	90 e0       	ldi	r25, 0x00	; 0
    16d0:	0e 94 f5 08 	call	0x11ea	; 0x11ea <_Z9stringlenPKc>
    16d4:	0f 97       	sbiw	r24, 0x0f	; 15
    16d6:	18 f0       	brcs	.+6      	; 0x16de <_Z16printKeypadToLCDv+0x4b2>
			{
				LCD_command(0x18);
    16d8:	88 e1       	ldi	r24, 0x18	; 24
    16da:	0e 94 c0 04 	call	0x980	; 0x980 <_Z11LCD_commandh>
			}
			LCD_print("4");
    16de:	86 e7       	ldi	r24, 0x76	; 118
    16e0:	90 e0       	ldi	r25, 0x00	; 0
    16e2:	0e 94 43 05 	call	0xa86	; 0xa86 <_Z9LCD_printPKc>
    16e6:	8f e0       	ldi	r24, 0x0F	; 15
    16e8:	97 e2       	ldi	r25, 0x27	; 39
    16ea:	01 97       	sbiw	r24, 0x01	; 1
    16ec:	f1 f7       	brne	.-4      	; 0x16ea <_Z16printKeypadToLCDv+0x4be>
    16ee:	00 c0       	rjmp	.+0      	; 0x16f0 <_Z16printKeypadToLCDv+0x4c4>
    16f0:	00 00       	nop
			_delay_ms(5);
			addIntToStringEnd(string, 4);
    16f2:	44 e0       	ldi	r20, 0x04	; 4
    16f4:	50 e0       	ldi	r21, 0x00	; 0
    16f6:	60 e0       	ldi	r22, 0x00	; 0
    16f8:	70 e0       	ldi	r23, 0x00	; 0
    16fa:	80 eb       	ldi	r24, 0xB0	; 176
    16fc:	90 e0       	ldi	r25, 0x00	; 0
    16fe:	0e 94 ec 05 	call	0xbd8	; 0xbd8 <_Z17addIntToStringEndPcm>
			break;
    1702:	97 cd       	rjmp	.-1234   	; 0x1232 <_Z16printKeypadToLCDv+0x6>
			case 13:
			if (flag == 1)
    1704:	c1 30       	cpi	r28, 0x01	; 1
    1706:	c9 f4       	brne	.+50     	; 0x173a <_Z16printKeypadToLCDv+0x50e>
			{
				LCD_clear();
    1708:	0e 94 1e 05 	call	0xa3c	; 0xa3c <_Z9LCD_clearv>
    170c:	8f e9       	ldi	r24, 0x9F	; 159
    170e:	9f e0       	ldi	r25, 0x0F	; 15
    1710:	01 97       	sbiw	r24, 0x01	; 1
    1712:	f1 f7       	brne	.-4      	; 0x1710 <_Z16printKeypadToLCDv+0x4e4>
    1714:	00 c0       	rjmp	.+0      	; 0x1716 <_Z16printKeypadToLCDv+0x4ea>
    1716:	00 00       	nop
				_delay_ms(2);
				clear_string(string);
    1718:	80 eb       	ldi	r24, 0xB0	; 176
    171a:	90 e0       	ldi	r25, 0x00	; 0
    171c:	0e 94 8b 05 	call	0xb16	; 0xb16 <_Z12clear_stringPc>
				clear_string(string1);
    1720:	82 e9       	ldi	r24, 0x92	; 146
    1722:	90 e0       	ldi	r25, 0x00	; 0
    1724:	0e 94 8b 05 	call	0xb16	; 0xb16 <_Z12clear_stringPc>
				result = 0;
    1728:	10 92 8e 00 	sts	0x008E, r1	; 0x80008e <result>
    172c:	10 92 8f 00 	sts	0x008F, r1	; 0x80008f <result+0x1>
    1730:	10 92 90 00 	sts	0x0090, r1	; 0x800090 <result+0x2>
    1734:	10 92 91 00 	sts	0x0091, r1	; 0x800091 <result+0x3>
				flag = 0;
    1738:	c0 e0       	ldi	r28, 0x00	; 0
			}
			if (stringlen(string) >= 15)
    173a:	80 eb       	ldi	r24, 0xB0	; 176
    173c:	90 e0       	ldi	r25, 0x00	; 0
    173e:	0e 94 f5 08 	call	0x11ea	; 0x11ea <_Z9stringlenPKc>
    1742:	0f 97       	sbiw	r24, 0x0f	; 15
    1744:	18 f0       	brcs	.+6      	; 0x174c <_Z16printKeypadToLCDv+0x520>
			{
				LCD_command(0x18);
    1746:	88 e1       	ldi	r24, 0x18	; 24
    1748:	0e 94 c0 04 	call	0x980	; 0x980 <_Z11LCD_commandh>
			}
			LCD_print("5");
    174c:	88 e7       	ldi	r24, 0x78	; 120
    174e:	90 e0       	ldi	r25, 0x00	; 0
    1750:	0e 94 43 05 	call	0xa86	; 0xa86 <_Z9LCD_printPKc>
    1754:	8f e0       	ldi	r24, 0x0F	; 15
    1756:	97 e2       	ldi	r25, 0x27	; 39
    1758:	01 97       	sbiw	r24, 0x01	; 1
    175a:	f1 f7       	brne	.-4      	; 0x1758 <_Z16printKeypadToLCDv+0x52c>
    175c:	00 c0       	rjmp	.+0      	; 0x175e <_Z16printKeypadToLCDv+0x532>
    175e:	00 00       	nop
			_delay_ms(5);
			addIntToStringEnd(string, 5);
    1760:	45 e0       	ldi	r20, 0x05	; 5
    1762:	50 e0       	ldi	r21, 0x00	; 0
    1764:	60 e0       	ldi	r22, 0x00	; 0
    1766:	70 e0       	ldi	r23, 0x00	; 0
    1768:	80 eb       	ldi	r24, 0xB0	; 176
    176a:	90 e0       	ldi	r25, 0x00	; 0
    176c:	0e 94 ec 05 	call	0xbd8	; 0xbd8 <_Z17addIntToStringEndPcm>
			break;
    1770:	60 cd       	rjmp	.-1344   	; 0x1232 <_Z16printKeypadToLCDv+0x6>
			case 14:
			if (flag == 1)
    1772:	c1 30       	cpi	r28, 0x01	; 1
    1774:	c9 f4       	brne	.+50     	; 0x17a8 <_Z16printKeypadToLCDv+0x57c>
			{
				LCD_clear();
    1776:	0e 94 1e 05 	call	0xa3c	; 0xa3c <_Z9LCD_clearv>
    177a:	8f e9       	ldi	r24, 0x9F	; 159
    177c:	9f e0       	ldi	r25, 0x0F	; 15
    177e:	01 97       	sbiw	r24, 0x01	; 1
    1780:	f1 f7       	brne	.-4      	; 0x177e <_Z16printKeypadToLCDv+0x552>
    1782:	00 c0       	rjmp	.+0      	; 0x1784 <_Z16printKeypadToLCDv+0x558>
    1784:	00 00       	nop
				_delay_ms(2);
				clear_string(string);
    1786:	80 eb       	ldi	r24, 0xB0	; 176
    1788:	90 e0       	ldi	r25, 0x00	; 0
    178a:	0e 94 8b 05 	call	0xb16	; 0xb16 <_Z12clear_stringPc>
				clear_string(string1);
    178e:	82 e9       	ldi	r24, 0x92	; 146
    1790:	90 e0       	ldi	r25, 0x00	; 0
    1792:	0e 94 8b 05 	call	0xb16	; 0xb16 <_Z12clear_stringPc>
				result = 0;
    1796:	10 92 8e 00 	sts	0x008E, r1	; 0x80008e <result>
    179a:	10 92 8f 00 	sts	0x008F, r1	; 0x80008f <result+0x1>
    179e:	10 92 90 00 	sts	0x0090, r1	; 0x800090 <result+0x2>
    17a2:	10 92 91 00 	sts	0x0091, r1	; 0x800091 <result+0x3>
				flag = 0;
    17a6:	c0 e0       	ldi	r28, 0x00	; 0
			}
			if (stringlen(string) >= 15)
    17a8:	80 eb       	ldi	r24, 0xB0	; 176
    17aa:	90 e0       	ldi	r25, 0x00	; 0
    17ac:	0e 94 f5 08 	call	0x11ea	; 0x11ea <_Z9stringlenPKc>
    17b0:	0f 97       	sbiw	r24, 0x0f	; 15
    17b2:	18 f0       	brcs	.+6      	; 0x17ba <_Z16printKeypadToLCDv+0x58e>
			{
				LCD_command(0x18);
    17b4:	88 e1       	ldi	r24, 0x18	; 24
    17b6:	0e 94 c0 04 	call	0x980	; 0x980 <_Z11LCD_commandh>
			}
			LCD_print("6");
    17ba:	8a e7       	ldi	r24, 0x7A	; 122
    17bc:	90 e0       	ldi	r25, 0x00	; 0
    17be:	0e 94 43 05 	call	0xa86	; 0xa86 <_Z9LCD_printPKc>
    17c2:	8f e0       	ldi	r24, 0x0F	; 15
    17c4:	97 e2       	ldi	r25, 0x27	; 39
    17c6:	01 97       	sbiw	r24, 0x01	; 1
    17c8:	f1 f7       	brne	.-4      	; 0x17c6 <_Z16printKeypadToLCDv+0x59a>
    17ca:	00 c0       	rjmp	.+0      	; 0x17cc <_Z16printKeypadToLCDv+0x5a0>
    17cc:	00 00       	nop
			_delay_ms(5);
			addIntToStringEnd(string, 6);
    17ce:	46 e0       	ldi	r20, 0x06	; 6
    17d0:	50 e0       	ldi	r21, 0x00	; 0
    17d2:	60 e0       	ldi	r22, 0x00	; 0
    17d4:	70 e0       	ldi	r23, 0x00	; 0
    17d6:	80 eb       	ldi	r24, 0xB0	; 176
    17d8:	90 e0       	ldi	r25, 0x00	; 0
    17da:	0e 94 ec 05 	call	0xbd8	; 0xbd8 <_Z17addIntToStringEndPcm>
			break;
    17de:	29 cd       	rjmp	.-1454   	; 0x1232 <_Z16printKeypadToLCDv+0x6>
			case 15:
			if (flag == 1)
    17e0:	c1 30       	cpi	r28, 0x01	; 1
    17e2:	c9 f4       	brne	.+50     	; 0x1816 <_Z16printKeypadToLCDv+0x5ea>
			{
				LCD_clear();
    17e4:	0e 94 1e 05 	call	0xa3c	; 0xa3c <_Z9LCD_clearv>
    17e8:	8f e9       	ldi	r24, 0x9F	; 159
    17ea:	9f e0       	ldi	r25, 0x0F	; 15
    17ec:	01 97       	sbiw	r24, 0x01	; 1
    17ee:	f1 f7       	brne	.-4      	; 0x17ec <_Z16printKeypadToLCDv+0x5c0>
    17f0:	00 c0       	rjmp	.+0      	; 0x17f2 <_Z16printKeypadToLCDv+0x5c6>
    17f2:	00 00       	nop
				_delay_ms(2);
				clear_string(string);
    17f4:	80 eb       	ldi	r24, 0xB0	; 176
    17f6:	90 e0       	ldi	r25, 0x00	; 0
    17f8:	0e 94 8b 05 	call	0xb16	; 0xb16 <_Z12clear_stringPc>
				clear_string(string1);
    17fc:	82 e9       	ldi	r24, 0x92	; 146
    17fe:	90 e0       	ldi	r25, 0x00	; 0
    1800:	0e 94 8b 05 	call	0xb16	; 0xb16 <_Z12clear_stringPc>
				result = 0;
    1804:	10 92 8e 00 	sts	0x008E, r1	; 0x80008e <result>
    1808:	10 92 8f 00 	sts	0x008F, r1	; 0x80008f <result+0x1>
    180c:	10 92 90 00 	sts	0x0090, r1	; 0x800090 <result+0x2>
    1810:	10 92 91 00 	sts	0x0091, r1	; 0x800091 <result+0x3>
				flag = 0;
    1814:	c0 e0       	ldi	r28, 0x00	; 0
			}
			if (stringlen(string) >= 15)
    1816:	80 eb       	ldi	r24, 0xB0	; 176
    1818:	90 e0       	ldi	r25, 0x00	; 0
    181a:	0e 94 f5 08 	call	0x11ea	; 0x11ea <_Z9stringlenPKc>
    181e:	0f 97       	sbiw	r24, 0x0f	; 15
    1820:	18 f0       	brcs	.+6      	; 0x1828 <_Z16printKeypadToLCDv+0x5fc>
			{
				LCD_command(0x18);
    1822:	88 e1       	ldi	r24, 0x18	; 24
    1824:	0e 94 c0 04 	call	0x980	; 0x980 <_Z11LCD_commandh>
			}
			LCD_print_char(0x78);
    1828:	88 e7       	ldi	r24, 0x78	; 120
    182a:	0e 94 7b 05 	call	0xaf6	; 0xaf6 <_Z14LCD_print_charc>
    182e:	8f e0       	ldi	r24, 0x0F	; 15
    1830:	97 e2       	ldi	r25, 0x27	; 39
    1832:	01 97       	sbiw	r24, 0x01	; 1
    1834:	f1 f7       	brne	.-4      	; 0x1832 <_Z16printKeypadToLCDv+0x606>
    1836:	00 c0       	rjmp	.+0      	; 0x1838 <_Z16printKeypadToLCDv+0x60c>
    1838:	00 00       	nop
			_delay_ms(5);
			addCharToStringEnd(string, 42);
    183a:	6a e2       	ldi	r22, 0x2A	; 42
    183c:	80 eb       	ldi	r24, 0xB0	; 176
    183e:	90 e0       	ldi	r25, 0x00	; 0
    1840:	0e 94 4a 06 	call	0xc94	; 0xc94 <_Z18addCharToStringEndPcc>
			break;
    1844:	f6 cc       	rjmp	.-1556   	; 0x1232 <_Z16printKeypadToLCDv+0x6>
			case 16:
			if (flag == 1)
    1846:	c1 30       	cpi	r28, 0x01	; 1
    1848:	c9 f4       	brne	.+50     	; 0x187c <_Z16printKeypadToLCDv+0x650>
			{
				LCD_clear();
    184a:	0e 94 1e 05 	call	0xa3c	; 0xa3c <_Z9LCD_clearv>
    184e:	8f e9       	ldi	r24, 0x9F	; 159
    1850:	9f e0       	ldi	r25, 0x0F	; 15
    1852:	01 97       	sbiw	r24, 0x01	; 1
    1854:	f1 f7       	brne	.-4      	; 0x1852 <_Z16printKeypadToLCDv+0x626>
    1856:	00 c0       	rjmp	.+0      	; 0x1858 <_Z16printKeypadToLCDv+0x62c>
    1858:	00 00       	nop
				_delay_ms(2);
				clear_string(string);
    185a:	80 eb       	ldi	r24, 0xB0	; 176
    185c:	90 e0       	ldi	r25, 0x00	; 0
    185e:	0e 94 8b 05 	call	0xb16	; 0xb16 <_Z12clear_stringPc>
				clear_string(string1);
    1862:	82 e9       	ldi	r24, 0x92	; 146
    1864:	90 e0       	ldi	r25, 0x00	; 0
    1866:	0e 94 8b 05 	call	0xb16	; 0xb16 <_Z12clear_stringPc>
				result = 0;
    186a:	10 92 8e 00 	sts	0x008E, r1	; 0x80008e <result>
    186e:	10 92 8f 00 	sts	0x008F, r1	; 0x80008f <result+0x1>
    1872:	10 92 90 00 	sts	0x0090, r1	; 0x800090 <result+0x2>
    1876:	10 92 91 00 	sts	0x0091, r1	; 0x800091 <result+0x3>
				flag = 0;
    187a:	c0 e0       	ldi	r28, 0x00	; 0
			}
			if (stringlen(string) >= 15)
    187c:	80 eb       	ldi	r24, 0xB0	; 176
    187e:	90 e0       	ldi	r25, 0x00	; 0
    1880:	0e 94 f5 08 	call	0x11ea	; 0x11ea <_Z9stringlenPKc>
    1884:	0f 97       	sbiw	r24, 0x0f	; 15
    1886:	18 f0       	brcs	.+6      	; 0x188e <_Z16printKeypadToLCDv+0x662>
			{
				LCD_command(0x18);
    1888:	88 e1       	ldi	r24, 0x18	; 24
    188a:	0e 94 c0 04 	call	0x980	; 0x980 <_Z11LCD_commandh>
			}
			LCD_print("1");
    188e:	8c e7       	ldi	r24, 0x7C	; 124
    1890:	90 e0       	ldi	r25, 0x00	; 0
    1892:	0e 94 43 05 	call	0xa86	; 0xa86 <_Z9LCD_printPKc>
    1896:	8f e0       	ldi	r24, 0x0F	; 15
    1898:	97 e2       	ldi	r25, 0x27	; 39
    189a:	01 97       	sbiw	r24, 0x01	; 1
    189c:	f1 f7       	brne	.-4      	; 0x189a <_Z16printKeypadToLCDv+0x66e>
    189e:	00 c0       	rjmp	.+0      	; 0x18a0 <_Z16printKeypadToLCDv+0x674>
    18a0:	00 00       	nop
			_delay_ms(5);
			addIntToStringEnd(string, 1);
    18a2:	41 e0       	ldi	r20, 0x01	; 1
    18a4:	50 e0       	ldi	r21, 0x00	; 0
    18a6:	60 e0       	ldi	r22, 0x00	; 0
    18a8:	70 e0       	ldi	r23, 0x00	; 0
    18aa:	80 eb       	ldi	r24, 0xB0	; 176
    18ac:	90 e0       	ldi	r25, 0x00	; 0
    18ae:	0e 94 ec 05 	call	0xbd8	; 0xbd8 <_Z17addIntToStringEndPcm>
			break;
    18b2:	bf cc       	rjmp	.-1666   	; 0x1232 <_Z16printKeypadToLCDv+0x6>
			case 17:
			if (flag == 1)
    18b4:	c1 30       	cpi	r28, 0x01	; 1
    18b6:	c9 f4       	brne	.+50     	; 0x18ea <_Z16printKeypadToLCDv+0x6be>
			{
				LCD_clear();
    18b8:	0e 94 1e 05 	call	0xa3c	; 0xa3c <_Z9LCD_clearv>
    18bc:	8f e9       	ldi	r24, 0x9F	; 159
    18be:	9f e0       	ldi	r25, 0x0F	; 15
    18c0:	01 97       	sbiw	r24, 0x01	; 1
    18c2:	f1 f7       	brne	.-4      	; 0x18c0 <_Z16printKeypadToLCDv+0x694>
    18c4:	00 c0       	rjmp	.+0      	; 0x18c6 <_Z16printKeypadToLCDv+0x69a>
    18c6:	00 00       	nop
				_delay_ms(2);
				clear_string(string);
    18c8:	80 eb       	ldi	r24, 0xB0	; 176
    18ca:	90 e0       	ldi	r25, 0x00	; 0
    18cc:	0e 94 8b 05 	call	0xb16	; 0xb16 <_Z12clear_stringPc>
				clear_string(string1);
    18d0:	82 e9       	ldi	r24, 0x92	; 146
    18d2:	90 e0       	ldi	r25, 0x00	; 0
    18d4:	0e 94 8b 05 	call	0xb16	; 0xb16 <_Z12clear_stringPc>
				result = 0;
    18d8:	10 92 8e 00 	sts	0x008E, r1	; 0x80008e <result>
    18dc:	10 92 8f 00 	sts	0x008F, r1	; 0x80008f <result+0x1>
    18e0:	10 92 90 00 	sts	0x0090, r1	; 0x800090 <result+0x2>
    18e4:	10 92 91 00 	sts	0x0091, r1	; 0x800091 <result+0x3>
				flag = 0;
    18e8:	c0 e0       	ldi	r28, 0x00	; 0
			}
			if (stringlen(string) >= 15)
    18ea:	80 eb       	ldi	r24, 0xB0	; 176
    18ec:	90 e0       	ldi	r25, 0x00	; 0
    18ee:	0e 94 f5 08 	call	0x11ea	; 0x11ea <_Z9stringlenPKc>
    18f2:	0f 97       	sbiw	r24, 0x0f	; 15
    18f4:	18 f0       	brcs	.+6      	; 0x18fc <_Z16printKeypadToLCDv+0x6d0>
			{
				LCD_command(0x18);
    18f6:	88 e1       	ldi	r24, 0x18	; 24
    18f8:	0e 94 c0 04 	call	0x980	; 0x980 <_Z11LCD_commandh>
			}
			LCD_print("2");
    18fc:	8e e7       	ldi	r24, 0x7E	; 126
    18fe:	90 e0       	ldi	r25, 0x00	; 0
    1900:	0e 94 43 05 	call	0xa86	; 0xa86 <_Z9LCD_printPKc>
    1904:	8f e0       	ldi	r24, 0x0F	; 15
    1906:	97 e2       	ldi	r25, 0x27	; 39
    1908:	01 97       	sbiw	r24, 0x01	; 1
    190a:	f1 f7       	brne	.-4      	; 0x1908 <_Z16printKeypadToLCDv+0x6dc>
    190c:	00 c0       	rjmp	.+0      	; 0x190e <_Z16printKeypadToLCDv+0x6e2>
    190e:	00 00       	nop
			_delay_ms(5);
			addIntToStringEnd(string, 2);
    1910:	42 e0       	ldi	r20, 0x02	; 2
    1912:	50 e0       	ldi	r21, 0x00	; 0
    1914:	60 e0       	ldi	r22, 0x00	; 0
    1916:	70 e0       	ldi	r23, 0x00	; 0
    1918:	80 eb       	ldi	r24, 0xB0	; 176
    191a:	90 e0       	ldi	r25, 0x00	; 0
    191c:	0e 94 ec 05 	call	0xbd8	; 0xbd8 <_Z17addIntToStringEndPcm>
			break;
    1920:	88 cc       	rjmp	.-1776   	; 0x1232 <_Z16printKeypadToLCDv+0x6>
			case 18:
			if (flag == 1)
    1922:	c1 30       	cpi	r28, 0x01	; 1
    1924:	c9 f4       	brne	.+50     	; 0x1958 <_Z16printKeypadToLCDv+0x72c>
			{
				LCD_clear();
    1926:	0e 94 1e 05 	call	0xa3c	; 0xa3c <_Z9LCD_clearv>
    192a:	8f e9       	ldi	r24, 0x9F	; 159
    192c:	9f e0       	ldi	r25, 0x0F	; 15
    192e:	01 97       	sbiw	r24, 0x01	; 1
    1930:	f1 f7       	brne	.-4      	; 0x192e <_Z16printKeypadToLCDv+0x702>
    1932:	00 c0       	rjmp	.+0      	; 0x1934 <_Z16printKeypadToLCDv+0x708>
    1934:	00 00       	nop
				_delay_ms(2);
				clear_string(string);
    1936:	80 eb       	ldi	r24, 0xB0	; 176
    1938:	90 e0       	ldi	r25, 0x00	; 0
    193a:	0e 94 8b 05 	call	0xb16	; 0xb16 <_Z12clear_stringPc>
				clear_string(string1);
    193e:	82 e9       	ldi	r24, 0x92	; 146
    1940:	90 e0       	ldi	r25, 0x00	; 0
    1942:	0e 94 8b 05 	call	0xb16	; 0xb16 <_Z12clear_stringPc>
				result = 0;
    1946:	10 92 8e 00 	sts	0x008E, r1	; 0x80008e <result>
    194a:	10 92 8f 00 	sts	0x008F, r1	; 0x80008f <result+0x1>
    194e:	10 92 90 00 	sts	0x0090, r1	; 0x800090 <result+0x2>
    1952:	10 92 91 00 	sts	0x0091, r1	; 0x800091 <result+0x3>
				flag = 0;
    1956:	c0 e0       	ldi	r28, 0x00	; 0
			}
			if (stringlen(string) >= 15)
    1958:	80 eb       	ldi	r24, 0xB0	; 176
    195a:	90 e0       	ldi	r25, 0x00	; 0
    195c:	0e 94 f5 08 	call	0x11ea	; 0x11ea <_Z9stringlenPKc>
    1960:	0f 97       	sbiw	r24, 0x0f	; 15
    1962:	18 f0       	brcs	.+6      	; 0x196a <_Z16printKeypadToLCDv+0x73e>
			{
				LCD_command(0x18);
    1964:	88 e1       	ldi	r24, 0x18	; 24
    1966:	0e 94 c0 04 	call	0x980	; 0x980 <_Z11LCD_commandh>
			}
			LCD_print("3");
    196a:	80 e8       	ldi	r24, 0x80	; 128
    196c:	90 e0       	ldi	r25, 0x00	; 0
    196e:	0e 94 43 05 	call	0xa86	; 0xa86 <_Z9LCD_printPKc>
    1972:	8f e0       	ldi	r24, 0x0F	; 15
    1974:	97 e2       	ldi	r25, 0x27	; 39
    1976:	01 97       	sbiw	r24, 0x01	; 1
    1978:	f1 f7       	brne	.-4      	; 0x1976 <_Z16printKeypadToLCDv+0x74a>
    197a:	00 c0       	rjmp	.+0      	; 0x197c <_Z16printKeypadToLCDv+0x750>
    197c:	00 00       	nop
			_delay_ms(5);
			addIntToStringEnd(string, 3);
    197e:	43 e0       	ldi	r20, 0x03	; 3
    1980:	50 e0       	ldi	r21, 0x00	; 0
    1982:	60 e0       	ldi	r22, 0x00	; 0
    1984:	70 e0       	ldi	r23, 0x00	; 0
    1986:	80 eb       	ldi	r24, 0xB0	; 176
    1988:	90 e0       	ldi	r25, 0x00	; 0
    198a:	0e 94 ec 05 	call	0xbd8	; 0xbd8 <_Z17addIntToStringEndPcm>
			break;
    198e:	51 cc       	rjmp	.-1886   	; 0x1232 <_Z16printKeypadToLCDv+0x6>
			case 19:
			if (flag == 1)
    1990:	c1 30       	cpi	r28, 0x01	; 1
    1992:	c9 f4       	brne	.+50     	; 0x19c6 <_Z16printKeypadToLCDv+0x79a>
			{
				LCD_clear();
    1994:	0e 94 1e 05 	call	0xa3c	; 0xa3c <_Z9LCD_clearv>
    1998:	8f e9       	ldi	r24, 0x9F	; 159
    199a:	9f e0       	ldi	r25, 0x0F	; 15
    199c:	01 97       	sbiw	r24, 0x01	; 1
    199e:	f1 f7       	brne	.-4      	; 0x199c <_Z16printKeypadToLCDv+0x770>
    19a0:	00 c0       	rjmp	.+0      	; 0x19a2 <_Z16printKeypadToLCDv+0x776>
    19a2:	00 00       	nop
				_delay_ms(2);
				clear_string(string);
    19a4:	80 eb       	ldi	r24, 0xB0	; 176
    19a6:	90 e0       	ldi	r25, 0x00	; 0
    19a8:	0e 94 8b 05 	call	0xb16	; 0xb16 <_Z12clear_stringPc>
				clear_string(string1);
    19ac:	82 e9       	ldi	r24, 0x92	; 146
    19ae:	90 e0       	ldi	r25, 0x00	; 0
    19b0:	0e 94 8b 05 	call	0xb16	; 0xb16 <_Z12clear_stringPc>
				result = 0;
    19b4:	10 92 8e 00 	sts	0x008E, r1	; 0x80008e <result>
    19b8:	10 92 8f 00 	sts	0x008F, r1	; 0x80008f <result+0x1>
    19bc:	10 92 90 00 	sts	0x0090, r1	; 0x800090 <result+0x2>
    19c0:	10 92 91 00 	sts	0x0091, r1	; 0x800091 <result+0x3>
				flag = 0;
    19c4:	c0 e0       	ldi	r28, 0x00	; 0
			}
			if (stringlen(string) >= 15)
    19c6:	80 eb       	ldi	r24, 0xB0	; 176
    19c8:	90 e0       	ldi	r25, 0x00	; 0
    19ca:	0e 94 f5 08 	call	0x11ea	; 0x11ea <_Z9stringlenPKc>
    19ce:	0f 97       	sbiw	r24, 0x0f	; 15
    19d0:	18 f0       	brcs	.+6      	; 0x19d8 <_Z16printKeypadToLCDv+0x7ac>
			{
				LCD_command(0x18);
    19d2:	88 e1       	ldi	r24, 0x18	; 24
    19d4:	0e 94 c0 04 	call	0x980	; 0x980 <_Z11LCD_commandh>
			}
			LCD_print("-");
    19d8:	82 e8       	ldi	r24, 0x82	; 130
    19da:	90 e0       	ldi	r25, 0x00	; 0
    19dc:	0e 94 43 05 	call	0xa86	; 0xa86 <_Z9LCD_printPKc>
    19e0:	8f e0       	ldi	r24, 0x0F	; 15
    19e2:	97 e2       	ldi	r25, 0x27	; 39
    19e4:	01 97       	sbiw	r24, 0x01	; 1
    19e6:	f1 f7       	brne	.-4      	; 0x19e4 <_Z16printKeypadToLCDv+0x7b8>
    19e8:	00 c0       	rjmp	.+0      	; 0x19ea <_Z16printKeypadToLCDv+0x7be>
    19ea:	00 00       	nop
			_delay_ms(5);
			addCharToStringEnd(string, 45);
    19ec:	6d e2       	ldi	r22, 0x2D	; 45
    19ee:	80 eb       	ldi	r24, 0xB0	; 176
    19f0:	90 e0       	ldi	r25, 0x00	; 0
    19f2:	0e 94 4a 06 	call	0xc94	; 0xc94 <_Z18addCharToStringEndPcc>
			break;
    19f6:	1d cc       	rjmp	.-1990   	; 0x1232 <_Z16printKeypadToLCDv+0x6>
			case 20:
			if (flag == 1)
    19f8:	c1 30       	cpi	r28, 0x01	; 1
    19fa:	c9 f4       	brne	.+50     	; 0x1a2e <_Z16printKeypadToLCDv+0x802>
			{
				LCD_clear();
    19fc:	0e 94 1e 05 	call	0xa3c	; 0xa3c <_Z9LCD_clearv>
    1a00:	8f e9       	ldi	r24, 0x9F	; 159
    1a02:	9f e0       	ldi	r25, 0x0F	; 15
    1a04:	01 97       	sbiw	r24, 0x01	; 1
    1a06:	f1 f7       	brne	.-4      	; 0x1a04 <_Z16printKeypadToLCDv+0x7d8>
    1a08:	00 c0       	rjmp	.+0      	; 0x1a0a <_Z16printKeypadToLCDv+0x7de>
    1a0a:	00 00       	nop
				_delay_ms(2);
				clear_string(string);
    1a0c:	80 eb       	ldi	r24, 0xB0	; 176
    1a0e:	90 e0       	ldi	r25, 0x00	; 0
    1a10:	0e 94 8b 05 	call	0xb16	; 0xb16 <_Z12clear_stringPc>
				clear_string(string1);
    1a14:	82 e9       	ldi	r24, 0x92	; 146
    1a16:	90 e0       	ldi	r25, 0x00	; 0
    1a18:	0e 94 8b 05 	call	0xb16	; 0xb16 <_Z12clear_stringPc>
				result = 0;
    1a1c:	10 92 8e 00 	sts	0x008E, r1	; 0x80008e <result>
    1a20:	10 92 8f 00 	sts	0x008F, r1	; 0x80008f <result+0x1>
    1a24:	10 92 90 00 	sts	0x0090, r1	; 0x800090 <result+0x2>
    1a28:	10 92 91 00 	sts	0x0091, r1	; 0x800091 <result+0x3>
				flag = 0;
    1a2c:	c0 e0       	ldi	r28, 0x00	; 0
			}
			if (stringlen(string) >= 15)
    1a2e:	80 eb       	ldi	r24, 0xB0	; 176
    1a30:	90 e0       	ldi	r25, 0x00	; 0
    1a32:	0e 94 f5 08 	call	0x11ea	; 0x11ea <_Z9stringlenPKc>
    1a36:	0f 97       	sbiw	r24, 0x0f	; 15
    1a38:	18 f0       	brcs	.+6      	; 0x1a40 <_Z16printKeypadToLCDv+0x814>
			{
				LCD_command(0x18);
    1a3a:	88 e1       	ldi	r24, 0x18	; 24
    1a3c:	0e 94 c0 04 	call	0x980	; 0x980 <_Z11LCD_commandh>
			}
			LCD_print("0");
    1a40:	84 e8       	ldi	r24, 0x84	; 132
    1a42:	90 e0       	ldi	r25, 0x00	; 0
    1a44:	0e 94 43 05 	call	0xa86	; 0xa86 <_Z9LCD_printPKc>
    1a48:	8f e0       	ldi	r24, 0x0F	; 15
    1a4a:	97 e2       	ldi	r25, 0x27	; 39
    1a4c:	01 97       	sbiw	r24, 0x01	; 1
    1a4e:	f1 f7       	brne	.-4      	; 0x1a4c <_Z16printKeypadToLCDv+0x820>
    1a50:	00 c0       	rjmp	.+0      	; 0x1a52 <_Z16printKeypadToLCDv+0x826>
    1a52:	00 00       	nop
			_delay_ms(5);
			addIntToStringEnd(string, 0);
    1a54:	40 e0       	ldi	r20, 0x00	; 0
    1a56:	50 e0       	ldi	r21, 0x00	; 0
    1a58:	ba 01       	movw	r22, r20
    1a5a:	80 eb       	ldi	r24, 0xB0	; 176
    1a5c:	90 e0       	ldi	r25, 0x00	; 0
    1a5e:	0e 94 ec 05 	call	0xbd8	; 0xbd8 <_Z17addIntToStringEndPcm>
			break;
    1a62:	e7 cb       	rjmp	.-2098   	; 0x1232 <_Z16printKeypadToLCDv+0x6>
			case 21:
			if (flag == 1)
    1a64:	c1 30       	cpi	r28, 0x01	; 1
    1a66:	c9 f4       	brne	.+50     	; 0x1a9a <_Z16printKeypadToLCDv+0x86e>
			{
				LCD_clear();
    1a68:	0e 94 1e 05 	call	0xa3c	; 0xa3c <_Z9LCD_clearv>
    1a6c:	8f e9       	ldi	r24, 0x9F	; 159
    1a6e:	9f e0       	ldi	r25, 0x0F	; 15
    1a70:	01 97       	sbiw	r24, 0x01	; 1
    1a72:	f1 f7       	brne	.-4      	; 0x1a70 <_Z16printKeypadToLCDv+0x844>
    1a74:	00 c0       	rjmp	.+0      	; 0x1a76 <_Z16printKeypadToLCDv+0x84a>
    1a76:	00 00       	nop
				_delay_ms(2);
				clear_string(string);
    1a78:	80 eb       	ldi	r24, 0xB0	; 176
    1a7a:	90 e0       	ldi	r25, 0x00	; 0
    1a7c:	0e 94 8b 05 	call	0xb16	; 0xb16 <_Z12clear_stringPc>
				clear_string(string1);
    1a80:	82 e9       	ldi	r24, 0x92	; 146
    1a82:	90 e0       	ldi	r25, 0x00	; 0
    1a84:	0e 94 8b 05 	call	0xb16	; 0xb16 <_Z12clear_stringPc>
				result = 0;
    1a88:	10 92 8e 00 	sts	0x008E, r1	; 0x80008e <result>
    1a8c:	10 92 8f 00 	sts	0x008F, r1	; 0x80008f <result+0x1>
    1a90:	10 92 90 00 	sts	0x0090, r1	; 0x800090 <result+0x2>
    1a94:	10 92 91 00 	sts	0x0091, r1	; 0x800091 <result+0x3>
				flag = 0;
    1a98:	c0 e0       	ldi	r28, 0x00	; 0
			}
			if (stringlen(string) >= 15)
    1a9a:	80 eb       	ldi	r24, 0xB0	; 176
    1a9c:	90 e0       	ldi	r25, 0x00	; 0
    1a9e:	0e 94 f5 08 	call	0x11ea	; 0x11ea <_Z9stringlenPKc>
    1aa2:	0f 97       	sbiw	r24, 0x0f	; 15
    1aa4:	18 f0       	brcs	.+6      	; 0x1aac <_Z16printKeypadToLCDv+0x880>
			{
				LCD_command(0x18);
    1aa6:	88 e1       	ldi	r24, 0x18	; 24
    1aa8:	0e 94 c0 04 	call	0x980	; 0x980 <_Z11LCD_commandh>
			}
			LCD_print(".");
    1aac:	86 e8       	ldi	r24, 0x86	; 134
    1aae:	90 e0       	ldi	r25, 0x00	; 0
    1ab0:	0e 94 43 05 	call	0xa86	; 0xa86 <_Z9LCD_printPKc>
    1ab4:	8f e0       	ldi	r24, 0x0F	; 15
    1ab6:	97 e2       	ldi	r25, 0x27	; 39
    1ab8:	01 97       	sbiw	r24, 0x01	; 1
    1aba:	f1 f7       	brne	.-4      	; 0x1ab8 <_Z16printKeypadToLCDv+0x88c>
    1abc:	00 c0       	rjmp	.+0      	; 0x1abe <_Z16printKeypadToLCDv+0x892>
    1abe:	00 00       	nop
			_delay_ms(5);
			addCharToStringEnd(string, 46);
    1ac0:	6e e2       	ldi	r22, 0x2E	; 46
    1ac2:	80 eb       	ldi	r24, 0xB0	; 176
    1ac4:	90 e0       	ldi	r25, 0x00	; 0
    1ac6:	0e 94 4a 06 	call	0xc94	; 0xc94 <_Z18addCharToStringEndPcc>
			break;
    1aca:	b3 cb       	rjmp	.-2202   	; 0x1232 <_Z16printKeypadToLCDv+0x6>
			case 23:
			if (flag == 1)
    1acc:	c1 30       	cpi	r28, 0x01	; 1
    1ace:	c9 f4       	brne	.+50     	; 0x1b02 <_Z16printKeypadToLCDv+0x8d6>
			{
				LCD_clear();
    1ad0:	0e 94 1e 05 	call	0xa3c	; 0xa3c <_Z9LCD_clearv>
    1ad4:	8f e9       	ldi	r24, 0x9F	; 159
    1ad6:	9f e0       	ldi	r25, 0x0F	; 15
    1ad8:	01 97       	sbiw	r24, 0x01	; 1
    1ada:	f1 f7       	brne	.-4      	; 0x1ad8 <_Z16printKeypadToLCDv+0x8ac>
    1adc:	00 c0       	rjmp	.+0      	; 0x1ade <_Z16printKeypadToLCDv+0x8b2>
    1ade:	00 00       	nop
				_delay_ms(2);
				clear_string(string);
    1ae0:	80 eb       	ldi	r24, 0xB0	; 176
    1ae2:	90 e0       	ldi	r25, 0x00	; 0
    1ae4:	0e 94 8b 05 	call	0xb16	; 0xb16 <_Z12clear_stringPc>
				clear_string(string1);
    1ae8:	82 e9       	ldi	r24, 0x92	; 146
    1aea:	90 e0       	ldi	r25, 0x00	; 0
    1aec:	0e 94 8b 05 	call	0xb16	; 0xb16 <_Z12clear_stringPc>
				result = 0;
    1af0:	10 92 8e 00 	sts	0x008E, r1	; 0x80008e <result>
    1af4:	10 92 8f 00 	sts	0x008F, r1	; 0x80008f <result+0x1>
    1af8:	10 92 90 00 	sts	0x0090, r1	; 0x800090 <result+0x2>
    1afc:	10 92 91 00 	sts	0x0091, r1	; 0x800091 <result+0x3>
				flag = 0;
    1b00:	c0 e0       	ldi	r28, 0x00	; 0
			}
			if (stringlen(string) >= 15)
    1b02:	80 eb       	ldi	r24, 0xB0	; 176
    1b04:	90 e0       	ldi	r25, 0x00	; 0
    1b06:	0e 94 f5 08 	call	0x11ea	; 0x11ea <_Z9stringlenPKc>
    1b0a:	0f 97       	sbiw	r24, 0x0f	; 15
    1b0c:	18 f0       	brcs	.+6      	; 0x1b14 <_Z16printKeypadToLCDv+0x8e8>
			{
				LCD_command(0x18);
    1b0e:	88 e1       	ldi	r24, 0x18	; 24
    1b10:	0e 94 c0 04 	call	0x980	; 0x980 <_Z11LCD_commandh>
			}
			LCD_print("+");
    1b14:	88 e8       	ldi	r24, 0x88	; 136
    1b16:	90 e0       	ldi	r25, 0x00	; 0
    1b18:	0e 94 43 05 	call	0xa86	; 0xa86 <_Z9LCD_printPKc>
    1b1c:	8f e0       	ldi	r24, 0x0F	; 15
    1b1e:	97 e2       	ldi	r25, 0x27	; 39
    1b20:	01 97       	sbiw	r24, 0x01	; 1
    1b22:	f1 f7       	brne	.-4      	; 0x1b20 <_Z16printKeypadToLCDv+0x8f4>
    1b24:	00 c0       	rjmp	.+0      	; 0x1b26 <_Z16printKeypadToLCDv+0x8fa>
    1b26:	00 00       	nop
			_delay_ms(5);
			addCharToStringEnd(string, 43);
    1b28:	6b e2       	ldi	r22, 0x2B	; 43
    1b2a:	80 eb       	ldi	r24, 0xB0	; 176
    1b2c:	90 e0       	ldi	r25, 0x00	; 0
    1b2e:	0e 94 4a 06 	call	0xc94	; 0xc94 <_Z18addCharToStringEndPcc>
			break;
    1b32:	7f cb       	rjmp	.-2306   	; 0x1232 <_Z16printKeypadToLCDv+0x6>
			case 22: // dau bang (=)
			clear_string(string1);
    1b34:	82 e9       	ldi	r24, 0x92	; 146
    1b36:	90 e0       	ldi	r25, 0x00	; 0
    1b38:	0e 94 8b 05 	call	0xb16	; 0xb16 <_Z12clear_stringPc>
			flag = 1;
			if (checkErrorCalculations(string) == 1)
    1b3c:	80 eb       	ldi	r24, 0xB0	; 176
    1b3e:	90 e0       	ldi	r25, 0x00	; 0
    1b40:	0e 94 0f 04 	call	0x81e	; 0x81e <_Z22checkErrorCalculationsPKc>
    1b44:	01 97       	sbiw	r24, 0x01	; 1
    1b46:	61 f4       	brne	.+24     	; 0x1b60 <_Z16printKeypadToLCDv+0x934>
			{
				LCD_print_result("ERROR");
    1b48:	8a e6       	ldi	r24, 0x6A	; 106
    1b4a:	90 e0       	ldi	r25, 0x00	; 0
    1b4c:	0e 94 50 05 	call	0xaa0	; 0xaa0 <_Z16LCD_print_resultPKc>
    1b50:	8f e0       	ldi	r24, 0x0F	; 15
    1b52:	97 e2       	ldi	r25, 0x27	; 39
    1b54:	01 97       	sbiw	r24, 0x01	; 1
    1b56:	f1 f7       	brne	.-4      	; 0x1b54 <_Z16printKeypadToLCDv+0x928>
    1b58:	00 c0       	rjmp	.+0      	; 0x1b5a <_Z16printKeypadToLCDv+0x92e>
    1b5a:	00 00       	nop
			_delay_ms(5);
			addCharToStringEnd(string, 43);
			break;
			case 22: // dau bang (=)
			clear_string(string1);
			flag = 1;
    1b5c:	c1 e0       	ldi	r28, 0x01	; 1
    1b5e:	69 cb       	rjmp	.-2350   	; 0x1232 <_Z16printKeypadToLCDv+0x6>
				LCD_print_result("ERROR");
				_delay_ms(5);
			}
			else
			{
				result = evaluate_expression(string);
    1b60:	80 eb       	ldi	r24, 0xB0	; 176
    1b62:	90 e0       	ldi	r25, 0x00	; 0
    1b64:	0e 94 cf 01 	call	0x39e	; 0x39e <_Z19evaluate_expressionPKc>
    1b68:	60 93 8e 00 	sts	0x008E, r22	; 0x80008e <result>
    1b6c:	70 93 8f 00 	sts	0x008F, r23	; 0x80008f <result+0x1>
    1b70:	80 93 90 00 	sts	0x0090, r24	; 0x800090 <result+0x2>
    1b74:	90 93 91 00 	sts	0x0091, r25	; 0x800091 <result+0x3>
				if(result >= power(2,63))
    1b78:	0f 2e       	mov	r0, r31
    1b7a:	ff e3       	ldi	r31, 0x3F	; 63
    1b7c:	af 2e       	mov	r10, r31
    1b7e:	f0 2d       	mov	r31, r0
    1b80:	b1 2c       	mov	r11, r1
    1b82:	c1 2c       	mov	r12, r1
    1b84:	d1 2c       	mov	r13, r1
    1b86:	e1 2c       	mov	r14, r1
    1b88:	f1 2c       	mov	r15, r1
    1b8a:	00 e0       	ldi	r16, 0x00	; 0
    1b8c:	10 e0       	ldi	r17, 0x00	; 0
    1b8e:	22 e0       	ldi	r18, 0x02	; 2
    1b90:	30 e0       	ldi	r19, 0x00	; 0
    1b92:	40 e0       	ldi	r20, 0x00	; 0
    1b94:	50 e0       	ldi	r21, 0x00	; 0
    1b96:	60 e0       	ldi	r22, 0x00	; 0
    1b98:	70 e0       	ldi	r23, 0x00	; 0
    1b9a:	80 e0       	ldi	r24, 0x00	; 0
    1b9c:	90 e0       	ldi	r25, 0x00	; 0
    1b9e:	0e 94 d0 00 	call	0x1a0	; 0x1a0 <_Z5powerxx>
    1ba2:	20 91 8e 00 	lds	r18, 0x008E	; 0x80008e <result>
    1ba6:	30 91 8f 00 	lds	r19, 0x008F	; 0x80008f <result+0x1>
    1baa:	40 91 90 00 	lds	r20, 0x0090	; 0x800090 <result+0x2>
    1bae:	50 91 91 00 	lds	r21, 0x0091	; 0x800091 <result+0x3>
    1bb2:	0e 94 9b 0e 	call	0x1d36	; 0x1d36 <__cmpsf2>
    1bb6:	18 16       	cp	r1, r24
    1bb8:	64 f0       	brlt	.+24     	; 0x1bd2 <_Z16printKeypadToLCDv+0x9a6>
				{
					LCD_print_result("ERROR");
    1bba:	8a e6       	ldi	r24, 0x6A	; 106
    1bbc:	90 e0       	ldi	r25, 0x00	; 0
    1bbe:	0e 94 50 05 	call	0xaa0	; 0xaa0 <_Z16LCD_print_resultPKc>
    1bc2:	8f e0       	ldi	r24, 0x0F	; 15
    1bc4:	97 e2       	ldi	r25, 0x27	; 39
    1bc6:	01 97       	sbiw	r24, 0x01	; 1
    1bc8:	f1 f7       	brne	.-4      	; 0x1bc6 <_Z16printKeypadToLCDv+0x99a>
    1bca:	00 c0       	rjmp	.+0      	; 0x1bcc <_Z16printKeypadToLCDv+0x9a0>
    1bcc:	00 00       	nop
			_delay_ms(5);
			addCharToStringEnd(string, 43);
			break;
			case 22: // dau bang (=)
			clear_string(string1);
			flag = 1;
    1bce:	c1 e0       	ldi	r28, 0x01	; 1
    1bd0:	30 cb       	rjmp	.-2464   	; 0x1232 <_Z16printKeypadToLCDv+0x6>
					LCD_print_result("ERROR");
					_delay_ms(5);
				}
				else
				{
					clear_string(string);
    1bd2:	80 eb       	ldi	r24, 0xB0	; 176
    1bd4:	90 e0       	ldi	r25, 0x00	; 0
    1bd6:	0e 94 8b 05 	call	0xb16	; 0xb16 <_Z12clear_stringPc>
					numToString(result, string);
    1bda:	60 91 8e 00 	lds	r22, 0x008E	; 0x80008e <result>
    1bde:	70 91 8f 00 	lds	r23, 0x008F	; 0x80008f <result+0x1>
    1be2:	80 91 90 00 	lds	r24, 0x0090	; 0x800090 <result+0x2>
    1be6:	90 91 91 00 	lds	r25, 0x0091	; 0x800091 <result+0x3>
    1bea:	40 eb       	ldi	r20, 0xB0	; 176
    1bec:	50 e0       	ldi	r21, 0x00	; 0
    1bee:	0e 94 ac 08 	call	0x1158	; 0x1158 <_Z11numToStringdPc>
					if(stringlen(string) > 15)
    1bf2:	80 eb       	ldi	r24, 0xB0	; 176
    1bf4:	90 e0       	ldi	r25, 0x00	; 0
    1bf6:	0e 94 f5 08 	call	0x11ea	; 0x11ea <_Z9stringlenPKc>
    1bfa:	40 97       	sbiw	r24, 0x10	; 16
    1bfc:	60 f0       	brcs	.+24     	; 0x1c16 <_Z16printKeypadToLCDv+0x9ea>
					{
						LCD_print_result("ERROR \0");
    1bfe:	80 e6       	ldi	r24, 0x60	; 96
    1c00:	90 e0       	ldi	r25, 0x00	; 0
    1c02:	0e 94 50 05 	call	0xaa0	; 0xaa0 <_Z16LCD_print_resultPKc>
    1c06:	8f e0       	ldi	r24, 0x0F	; 15
    1c08:	97 e2       	ldi	r25, 0x27	; 39
    1c0a:	01 97       	sbiw	r24, 0x01	; 1
    1c0c:	f1 f7       	brne	.-4      	; 0x1c0a <_Z16printKeypadToLCDv+0x9de>
    1c0e:	00 c0       	rjmp	.+0      	; 0x1c10 <_Z16printKeypadToLCDv+0x9e4>
    1c10:	00 00       	nop
			_delay_ms(5);
			addCharToStringEnd(string, 43);
			break;
			case 22: // dau bang (=)
			clear_string(string1);
			flag = 1;
    1c12:	c1 e0       	ldi	r28, 0x01	; 1
    1c14:	0e cb       	rjmp	.-2532   	; 0x1232 <_Z16printKeypadToLCDv+0x6>
						LCD_print_result("ERROR \0");
						_delay_ms(5);
					}
					else
					{
						coppyString(string1, string); //dung trong truong hop doi dau +-, va nhieu th khac
    1c16:	60 eb       	ldi	r22, 0xB0	; 176
    1c18:	70 e0       	ldi	r23, 0x00	; 0
    1c1a:	82 e9       	ldi	r24, 0x92	; 146
    1c1c:	90 e0       	ldi	r25, 0x00	; 0
    1c1e:	0e 94 01 09 	call	0x1202	; 0x1202 <_Z11coppyStringPcPKc>
						LCD_print_result(string);
    1c22:	80 eb       	ldi	r24, 0xB0	; 176
    1c24:	90 e0       	ldi	r25, 0x00	; 0
    1c26:	0e 94 50 05 	call	0xaa0	; 0xaa0 <_Z16LCD_print_resultPKc>
    1c2a:	8f e0       	ldi	r24, 0x0F	; 15
    1c2c:	97 e2       	ldi	r25, 0x27	; 39
    1c2e:	01 97       	sbiw	r24, 0x01	; 1
    1c30:	f1 f7       	brne	.-4      	; 0x1c2e <_Z16printKeypadToLCDv+0xa02>
    1c32:	00 c0       	rjmp	.+0      	; 0x1c34 <_Z16printKeypadToLCDv+0xa08>
    1c34:	00 00       	nop
			_delay_ms(5);
			addCharToStringEnd(string, 43);
			break;
			case 22: // dau bang (=)
			clear_string(string1);
			flag = 1;
    1c36:	c1 e0       	ldi	r28, 0x01	; 1
    1c38:	fc ca       	rjmp	.-2568   	; 0x1232 <_Z16printKeypadToLCDv+0x6>

00001c3a <main>:
	}
}

int main(void) {
	
	LCD_init(); // Kh?i t?o LCD
    1c3a:	0e 94 f4 04 	call	0x9e8	; 0x9e8 <_Z8LCD_initv>
    1c3e:	8f e1       	ldi	r24, 0x1F	; 31
    1c40:	9e e4       	ldi	r25, 0x4E	; 78
    1c42:	01 97       	sbiw	r24, 0x01	; 1
    1c44:	f1 f7       	brne	.-4      	; 0x1c42 <main+0x8>
    1c46:	00 c0       	rjmp	.+0      	; 0x1c48 <main+0xe>
    1c48:	00 00       	nop
	_delay_ms(10);
	// port B
	//keypad_setup(); // Kh?i t?o bàn phím
	
	LCD_gotoxy(16,1);
    1c4a:	61 e0       	ldi	r22, 0x01	; 1
    1c4c:	80 e1       	ldi	r24, 0x10	; 16
    1c4e:	0e 94 31 05 	call	0xa62	; 0xa62 <_Z10LCD_gotoxyhh>
	LCD_command(0x07);
    1c52:	87 e0       	ldi	r24, 0x07	; 7
    1c54:	0e 94 c0 04 	call	0x980	; 0x980 <_Z11LCD_commandh>
	printKeypadToLCD();
    1c58:	0e 94 16 09 	call	0x122c	; 0x122c <_Z16printKeypadToLCDv>

00001c5c <__subsf3>:
    1c5c:	50 58       	subi	r21, 0x80	; 128

00001c5e <__addsf3>:
    1c5e:	bb 27       	eor	r27, r27
    1c60:	aa 27       	eor	r26, r26
    1c62:	0e 94 46 0e 	call	0x1c8c	; 0x1c8c <__addsf3x>
    1c66:	0c 94 49 10 	jmp	0x2092	; 0x2092 <__fp_round>
    1c6a:	0e 94 3b 10 	call	0x2076	; 0x2076 <__fp_pscA>
    1c6e:	38 f0       	brcs	.+14     	; 0x1c7e <__addsf3+0x20>
    1c70:	0e 94 42 10 	call	0x2084	; 0x2084 <__fp_pscB>
    1c74:	20 f0       	brcs	.+8      	; 0x1c7e <__addsf3+0x20>
    1c76:	39 f4       	brne	.+14     	; 0x1c86 <__addsf3+0x28>
    1c78:	9f 3f       	cpi	r25, 0xFF	; 255
    1c7a:	19 f4       	brne	.+6      	; 0x1c82 <__addsf3+0x24>
    1c7c:	26 f4       	brtc	.+8      	; 0x1c86 <__addsf3+0x28>
    1c7e:	0c 94 28 10 	jmp	0x2050	; 0x2050 <__fp_nan>
    1c82:	0e f4       	brtc	.+2      	; 0x1c86 <__addsf3+0x28>
    1c84:	e0 95       	com	r30
    1c86:	e7 fb       	bst	r30, 7
    1c88:	0c 94 22 10 	jmp	0x2044	; 0x2044 <__fp_inf>

00001c8c <__addsf3x>:
    1c8c:	e9 2f       	mov	r30, r25
    1c8e:	0e 94 5a 10 	call	0x20b4	; 0x20b4 <__fp_split3>
    1c92:	58 f3       	brcs	.-42     	; 0x1c6a <__addsf3+0xc>
    1c94:	ba 17       	cp	r27, r26
    1c96:	62 07       	cpc	r22, r18
    1c98:	73 07       	cpc	r23, r19
    1c9a:	84 07       	cpc	r24, r20
    1c9c:	95 07       	cpc	r25, r21
    1c9e:	20 f0       	brcs	.+8      	; 0x1ca8 <__addsf3x+0x1c>
    1ca0:	79 f4       	brne	.+30     	; 0x1cc0 <__addsf3x+0x34>
    1ca2:	a6 f5       	brtc	.+104    	; 0x1d0c <__addsf3x+0x80>
    1ca4:	0c 94 7c 10 	jmp	0x20f8	; 0x20f8 <__fp_zero>
    1ca8:	0e f4       	brtc	.+2      	; 0x1cac <__addsf3x+0x20>
    1caa:	e0 95       	com	r30
    1cac:	0b 2e       	mov	r0, r27
    1cae:	ba 2f       	mov	r27, r26
    1cb0:	a0 2d       	mov	r26, r0
    1cb2:	0b 01       	movw	r0, r22
    1cb4:	b9 01       	movw	r22, r18
    1cb6:	90 01       	movw	r18, r0
    1cb8:	0c 01       	movw	r0, r24
    1cba:	ca 01       	movw	r24, r20
    1cbc:	a0 01       	movw	r20, r0
    1cbe:	11 24       	eor	r1, r1
    1cc0:	ff 27       	eor	r31, r31
    1cc2:	59 1b       	sub	r21, r25
    1cc4:	99 f0       	breq	.+38     	; 0x1cec <__addsf3x+0x60>
    1cc6:	59 3f       	cpi	r21, 0xF9	; 249
    1cc8:	50 f4       	brcc	.+20     	; 0x1cde <__addsf3x+0x52>
    1cca:	50 3e       	cpi	r21, 0xE0	; 224
    1ccc:	68 f1       	brcs	.+90     	; 0x1d28 <__addsf3x+0x9c>
    1cce:	1a 16       	cp	r1, r26
    1cd0:	f0 40       	sbci	r31, 0x00	; 0
    1cd2:	a2 2f       	mov	r26, r18
    1cd4:	23 2f       	mov	r18, r19
    1cd6:	34 2f       	mov	r19, r20
    1cd8:	44 27       	eor	r20, r20
    1cda:	58 5f       	subi	r21, 0xF8	; 248
    1cdc:	f3 cf       	rjmp	.-26     	; 0x1cc4 <__addsf3x+0x38>
    1cde:	46 95       	lsr	r20
    1ce0:	37 95       	ror	r19
    1ce2:	27 95       	ror	r18
    1ce4:	a7 95       	ror	r26
    1ce6:	f0 40       	sbci	r31, 0x00	; 0
    1ce8:	53 95       	inc	r21
    1cea:	c9 f7       	brne	.-14     	; 0x1cde <__addsf3x+0x52>
    1cec:	7e f4       	brtc	.+30     	; 0x1d0c <__addsf3x+0x80>
    1cee:	1f 16       	cp	r1, r31
    1cf0:	ba 0b       	sbc	r27, r26
    1cf2:	62 0b       	sbc	r22, r18
    1cf4:	73 0b       	sbc	r23, r19
    1cf6:	84 0b       	sbc	r24, r20
    1cf8:	ba f0       	brmi	.+46     	; 0x1d28 <__addsf3x+0x9c>
    1cfa:	91 50       	subi	r25, 0x01	; 1
    1cfc:	a1 f0       	breq	.+40     	; 0x1d26 <__addsf3x+0x9a>
    1cfe:	ff 0f       	add	r31, r31
    1d00:	bb 1f       	adc	r27, r27
    1d02:	66 1f       	adc	r22, r22
    1d04:	77 1f       	adc	r23, r23
    1d06:	88 1f       	adc	r24, r24
    1d08:	c2 f7       	brpl	.-16     	; 0x1cfa <__addsf3x+0x6e>
    1d0a:	0e c0       	rjmp	.+28     	; 0x1d28 <__addsf3x+0x9c>
    1d0c:	ba 0f       	add	r27, r26
    1d0e:	62 1f       	adc	r22, r18
    1d10:	73 1f       	adc	r23, r19
    1d12:	84 1f       	adc	r24, r20
    1d14:	48 f4       	brcc	.+18     	; 0x1d28 <__addsf3x+0x9c>
    1d16:	87 95       	ror	r24
    1d18:	77 95       	ror	r23
    1d1a:	67 95       	ror	r22
    1d1c:	b7 95       	ror	r27
    1d1e:	f7 95       	ror	r31
    1d20:	9e 3f       	cpi	r25, 0xFE	; 254
    1d22:	08 f0       	brcs	.+2      	; 0x1d26 <__addsf3x+0x9a>
    1d24:	b0 cf       	rjmp	.-160    	; 0x1c86 <__addsf3+0x28>
    1d26:	93 95       	inc	r25
    1d28:	88 0f       	add	r24, r24
    1d2a:	08 f0       	brcs	.+2      	; 0x1d2e <__addsf3x+0xa2>
    1d2c:	99 27       	eor	r25, r25
    1d2e:	ee 0f       	add	r30, r30
    1d30:	97 95       	ror	r25
    1d32:	87 95       	ror	r24
    1d34:	08 95       	ret

00001d36 <__cmpsf2>:
    1d36:	0e 94 fe 0f 	call	0x1ffc	; 0x1ffc <__fp_cmp>
    1d3a:	08 f4       	brcc	.+2      	; 0x1d3e <__cmpsf2+0x8>
    1d3c:	81 e0       	ldi	r24, 0x01	; 1
    1d3e:	08 95       	ret

00001d40 <__divsf3>:
    1d40:	0e 94 b4 0e 	call	0x1d68	; 0x1d68 <__divsf3x>
    1d44:	0c 94 49 10 	jmp	0x2092	; 0x2092 <__fp_round>
    1d48:	0e 94 42 10 	call	0x2084	; 0x2084 <__fp_pscB>
    1d4c:	58 f0       	brcs	.+22     	; 0x1d64 <__divsf3+0x24>
    1d4e:	0e 94 3b 10 	call	0x2076	; 0x2076 <__fp_pscA>
    1d52:	40 f0       	brcs	.+16     	; 0x1d64 <__divsf3+0x24>
    1d54:	29 f4       	brne	.+10     	; 0x1d60 <__divsf3+0x20>
    1d56:	5f 3f       	cpi	r21, 0xFF	; 255
    1d58:	29 f0       	breq	.+10     	; 0x1d64 <__divsf3+0x24>
    1d5a:	0c 94 22 10 	jmp	0x2044	; 0x2044 <__fp_inf>
    1d5e:	51 11       	cpse	r21, r1
    1d60:	0c 94 7d 10 	jmp	0x20fa	; 0x20fa <__fp_szero>
    1d64:	0c 94 28 10 	jmp	0x2050	; 0x2050 <__fp_nan>

00001d68 <__divsf3x>:
    1d68:	0e 94 5a 10 	call	0x20b4	; 0x20b4 <__fp_split3>
    1d6c:	68 f3       	brcs	.-38     	; 0x1d48 <__divsf3+0x8>

00001d6e <__divsf3_pse>:
    1d6e:	99 23       	and	r25, r25
    1d70:	b1 f3       	breq	.-20     	; 0x1d5e <__divsf3+0x1e>
    1d72:	55 23       	and	r21, r21
    1d74:	91 f3       	breq	.-28     	; 0x1d5a <__divsf3+0x1a>
    1d76:	95 1b       	sub	r25, r21
    1d78:	55 0b       	sbc	r21, r21
    1d7a:	bb 27       	eor	r27, r27
    1d7c:	aa 27       	eor	r26, r26
    1d7e:	62 17       	cp	r22, r18
    1d80:	73 07       	cpc	r23, r19
    1d82:	84 07       	cpc	r24, r20
    1d84:	38 f0       	brcs	.+14     	; 0x1d94 <__divsf3_pse+0x26>
    1d86:	9f 5f       	subi	r25, 0xFF	; 255
    1d88:	5f 4f       	sbci	r21, 0xFF	; 255
    1d8a:	22 0f       	add	r18, r18
    1d8c:	33 1f       	adc	r19, r19
    1d8e:	44 1f       	adc	r20, r20
    1d90:	aa 1f       	adc	r26, r26
    1d92:	a9 f3       	breq	.-22     	; 0x1d7e <__divsf3_pse+0x10>
    1d94:	35 d0       	rcall	.+106    	; 0x1e00 <__divsf3_pse+0x92>
    1d96:	0e 2e       	mov	r0, r30
    1d98:	3a f0       	brmi	.+14     	; 0x1da8 <__divsf3_pse+0x3a>
    1d9a:	e0 e8       	ldi	r30, 0x80	; 128
    1d9c:	32 d0       	rcall	.+100    	; 0x1e02 <__divsf3_pse+0x94>
    1d9e:	91 50       	subi	r25, 0x01	; 1
    1da0:	50 40       	sbci	r21, 0x00	; 0
    1da2:	e6 95       	lsr	r30
    1da4:	00 1c       	adc	r0, r0
    1da6:	ca f7       	brpl	.-14     	; 0x1d9a <__divsf3_pse+0x2c>
    1da8:	2b d0       	rcall	.+86     	; 0x1e00 <__divsf3_pse+0x92>
    1daa:	fe 2f       	mov	r31, r30
    1dac:	29 d0       	rcall	.+82     	; 0x1e00 <__divsf3_pse+0x92>
    1dae:	66 0f       	add	r22, r22
    1db0:	77 1f       	adc	r23, r23
    1db2:	88 1f       	adc	r24, r24
    1db4:	bb 1f       	adc	r27, r27
    1db6:	26 17       	cp	r18, r22
    1db8:	37 07       	cpc	r19, r23
    1dba:	48 07       	cpc	r20, r24
    1dbc:	ab 07       	cpc	r26, r27
    1dbe:	b0 e8       	ldi	r27, 0x80	; 128
    1dc0:	09 f0       	breq	.+2      	; 0x1dc4 <__divsf3_pse+0x56>
    1dc2:	bb 0b       	sbc	r27, r27
    1dc4:	80 2d       	mov	r24, r0
    1dc6:	bf 01       	movw	r22, r30
    1dc8:	ff 27       	eor	r31, r31
    1dca:	93 58       	subi	r25, 0x83	; 131
    1dcc:	5f 4f       	sbci	r21, 0xFF	; 255
    1dce:	3a f0       	brmi	.+14     	; 0x1dde <__divsf3_pse+0x70>
    1dd0:	9e 3f       	cpi	r25, 0xFE	; 254
    1dd2:	51 05       	cpc	r21, r1
    1dd4:	78 f0       	brcs	.+30     	; 0x1df4 <__divsf3_pse+0x86>
    1dd6:	0c 94 22 10 	jmp	0x2044	; 0x2044 <__fp_inf>
    1dda:	0c 94 7d 10 	jmp	0x20fa	; 0x20fa <__fp_szero>
    1dde:	5f 3f       	cpi	r21, 0xFF	; 255
    1de0:	e4 f3       	brlt	.-8      	; 0x1dda <__divsf3_pse+0x6c>
    1de2:	98 3e       	cpi	r25, 0xE8	; 232
    1de4:	d4 f3       	brlt	.-12     	; 0x1dda <__divsf3_pse+0x6c>
    1de6:	86 95       	lsr	r24
    1de8:	77 95       	ror	r23
    1dea:	67 95       	ror	r22
    1dec:	b7 95       	ror	r27
    1dee:	f7 95       	ror	r31
    1df0:	9f 5f       	subi	r25, 0xFF	; 255
    1df2:	c9 f7       	brne	.-14     	; 0x1de6 <__divsf3_pse+0x78>
    1df4:	88 0f       	add	r24, r24
    1df6:	91 1d       	adc	r25, r1
    1df8:	96 95       	lsr	r25
    1dfa:	87 95       	ror	r24
    1dfc:	97 f9       	bld	r25, 7
    1dfe:	08 95       	ret
    1e00:	e1 e0       	ldi	r30, 0x01	; 1
    1e02:	66 0f       	add	r22, r22
    1e04:	77 1f       	adc	r23, r23
    1e06:	88 1f       	adc	r24, r24
    1e08:	bb 1f       	adc	r27, r27
    1e0a:	62 17       	cp	r22, r18
    1e0c:	73 07       	cpc	r23, r19
    1e0e:	84 07       	cpc	r24, r20
    1e10:	ba 07       	cpc	r27, r26
    1e12:	20 f0       	brcs	.+8      	; 0x1e1c <__divsf3_pse+0xae>
    1e14:	62 1b       	sub	r22, r18
    1e16:	73 0b       	sbc	r23, r19
    1e18:	84 0b       	sbc	r24, r20
    1e1a:	ba 0b       	sbc	r27, r26
    1e1c:	ee 1f       	adc	r30, r30
    1e1e:	88 f7       	brcc	.-30     	; 0x1e02 <__divsf3_pse+0x94>
    1e20:	e0 95       	com	r30
    1e22:	08 95       	ret

00001e24 <__fixsfdi>:
    1e24:	be e3       	ldi	r27, 0x3E	; 62
    1e26:	04 d0       	rcall	.+8      	; 0x1e30 <__fixunssfdi+0x2>
    1e28:	08 f4       	brcc	.+2      	; 0x1e2c <__fixsfdi+0x8>
    1e2a:	90 e8       	ldi	r25, 0x80	; 128
    1e2c:	08 95       	ret

00001e2e <__fixunssfdi>:
    1e2e:	bf e3       	ldi	r27, 0x3F	; 63
    1e30:	22 27       	eor	r18, r18
    1e32:	33 27       	eor	r19, r19
    1e34:	a9 01       	movw	r20, r18
    1e36:	0e 94 62 10 	call	0x20c4	; 0x20c4 <__fp_splitA>
    1e3a:	60 f1       	brcs	.+88     	; 0x1e94 <__fixunssfdi+0x66>
    1e3c:	9f 57       	subi	r25, 0x7F	; 127
    1e3e:	48 f1       	brcs	.+82     	; 0x1e92 <__fixunssfdi+0x64>
    1e40:	b9 17       	cp	r27, r25
    1e42:	40 f1       	brcs	.+80     	; 0x1e94 <__fixunssfdi+0x66>
    1e44:	bf e3       	ldi	r27, 0x3F	; 63
    1e46:	b9 1b       	sub	r27, r25
    1e48:	99 27       	eor	r25, r25
    1e4a:	b8 50       	subi	r27, 0x08	; 8
    1e4c:	3a f4       	brpl	.+14     	; 0x1e5c <__fixunssfdi+0x2e>
    1e4e:	66 0f       	add	r22, r22
    1e50:	77 1f       	adc	r23, r23
    1e52:	88 1f       	adc	r24, r24
    1e54:	99 1f       	adc	r25, r25
    1e56:	b3 95       	inc	r27
    1e58:	d2 f3       	brmi	.-12     	; 0x1e4e <__fixunssfdi+0x20>
    1e5a:	16 c0       	rjmp	.+44     	; 0x1e88 <__fixunssfdi+0x5a>
    1e5c:	b8 50       	subi	r27, 0x08	; 8
    1e5e:	4a f0       	brmi	.+18     	; 0x1e72 <__fixunssfdi+0x44>
    1e60:	23 2f       	mov	r18, r19
    1e62:	34 2f       	mov	r19, r20
    1e64:	45 2f       	mov	r20, r21
    1e66:	56 2f       	mov	r21, r22
    1e68:	67 2f       	mov	r22, r23
    1e6a:	78 2f       	mov	r23, r24
    1e6c:	88 27       	eor	r24, r24
    1e6e:	b8 50       	subi	r27, 0x08	; 8
    1e70:	ba f7       	brpl	.-18     	; 0x1e60 <__fixunssfdi+0x32>
    1e72:	b8 5f       	subi	r27, 0xF8	; 248
    1e74:	49 f0       	breq	.+18     	; 0x1e88 <__fixunssfdi+0x5a>
    1e76:	86 95       	lsr	r24
    1e78:	77 95       	ror	r23
    1e7a:	67 95       	ror	r22
    1e7c:	57 95       	ror	r21
    1e7e:	47 95       	ror	r20
    1e80:	37 95       	ror	r19
    1e82:	27 95       	ror	r18
    1e84:	ba 95       	dec	r27
    1e86:	b9 f7       	brne	.-18     	; 0x1e76 <__fixunssfdi+0x48>
    1e88:	16 f4       	brtc	.+4      	; 0x1e8e <__fixunssfdi+0x60>
    1e8a:	0e 94 2b 10 	call	0x2056	; 0x2056 <__fp_negdi>
    1e8e:	88 94       	clc
    1e90:	08 95       	ret
    1e92:	88 94       	clc
    1e94:	60 e0       	ldi	r22, 0x00	; 0
    1e96:	70 e0       	ldi	r23, 0x00	; 0
    1e98:	cb 01       	movw	r24, r22
    1e9a:	08 95       	ret

00001e9c <__fixunssfsi>:
    1e9c:	0e 94 62 10 	call	0x20c4	; 0x20c4 <__fp_splitA>
    1ea0:	88 f0       	brcs	.+34     	; 0x1ec4 <__fixunssfsi+0x28>
    1ea2:	9f 57       	subi	r25, 0x7F	; 127
    1ea4:	98 f0       	brcs	.+38     	; 0x1ecc <__fixunssfsi+0x30>
    1ea6:	b9 2f       	mov	r27, r25
    1ea8:	99 27       	eor	r25, r25
    1eaa:	b7 51       	subi	r27, 0x17	; 23
    1eac:	b0 f0       	brcs	.+44     	; 0x1eda <__fixunssfsi+0x3e>
    1eae:	e1 f0       	breq	.+56     	; 0x1ee8 <__fixunssfsi+0x4c>
    1eb0:	66 0f       	add	r22, r22
    1eb2:	77 1f       	adc	r23, r23
    1eb4:	88 1f       	adc	r24, r24
    1eb6:	99 1f       	adc	r25, r25
    1eb8:	1a f0       	brmi	.+6      	; 0x1ec0 <__fixunssfsi+0x24>
    1eba:	ba 95       	dec	r27
    1ebc:	c9 f7       	brne	.-14     	; 0x1eb0 <__fixunssfsi+0x14>
    1ebe:	14 c0       	rjmp	.+40     	; 0x1ee8 <__fixunssfsi+0x4c>
    1ec0:	b1 30       	cpi	r27, 0x01	; 1
    1ec2:	91 f0       	breq	.+36     	; 0x1ee8 <__fixunssfsi+0x4c>
    1ec4:	0e 94 7c 10 	call	0x20f8	; 0x20f8 <__fp_zero>
    1ec8:	b1 e0       	ldi	r27, 0x01	; 1
    1eca:	08 95       	ret
    1ecc:	0c 94 7c 10 	jmp	0x20f8	; 0x20f8 <__fp_zero>
    1ed0:	67 2f       	mov	r22, r23
    1ed2:	78 2f       	mov	r23, r24
    1ed4:	88 27       	eor	r24, r24
    1ed6:	b8 5f       	subi	r27, 0xF8	; 248
    1ed8:	39 f0       	breq	.+14     	; 0x1ee8 <__fixunssfsi+0x4c>
    1eda:	b9 3f       	cpi	r27, 0xF9	; 249
    1edc:	cc f3       	brlt	.-14     	; 0x1ed0 <__fixunssfsi+0x34>
    1ede:	86 95       	lsr	r24
    1ee0:	77 95       	ror	r23
    1ee2:	67 95       	ror	r22
    1ee4:	b3 95       	inc	r27
    1ee6:	d9 f7       	brne	.-10     	; 0x1ede <__fixunssfsi+0x42>
    1ee8:	3e f4       	brtc	.+14     	; 0x1ef8 <__fixunssfsi+0x5c>
    1eea:	90 95       	com	r25
    1eec:	80 95       	com	r24
    1eee:	70 95       	com	r23
    1ef0:	61 95       	neg	r22
    1ef2:	7f 4f       	sbci	r23, 0xFF	; 255
    1ef4:	8f 4f       	sbci	r24, 0xFF	; 255
    1ef6:	9f 4f       	sbci	r25, 0xFF	; 255
    1ef8:	08 95       	ret

00001efa <__floatdisf>:
    1efa:	97 fb       	bst	r25, 7
    1efc:	16 f4       	brtc	.+4      	; 0x1f02 <__floatdisf+0x8>
    1efe:	0e 94 2b 10 	call	0x2056	; 0x2056 <__fp_negdi>
    1f02:	0c 94 c1 0f 	jmp	0x1f82	; 0x1f82 <__fp_di2sf>

00001f06 <__floatunsisf>:
    1f06:	e8 94       	clt
    1f08:	09 c0       	rjmp	.+18     	; 0x1f1c <__floatsisf+0x12>

00001f0a <__floatsisf>:
    1f0a:	97 fb       	bst	r25, 7
    1f0c:	3e f4       	brtc	.+14     	; 0x1f1c <__floatsisf+0x12>
    1f0e:	90 95       	com	r25
    1f10:	80 95       	com	r24
    1f12:	70 95       	com	r23
    1f14:	61 95       	neg	r22
    1f16:	7f 4f       	sbci	r23, 0xFF	; 255
    1f18:	8f 4f       	sbci	r24, 0xFF	; 255
    1f1a:	9f 4f       	sbci	r25, 0xFF	; 255
    1f1c:	99 23       	and	r25, r25
    1f1e:	a9 f0       	breq	.+42     	; 0x1f4a <__floatsisf+0x40>
    1f20:	f9 2f       	mov	r31, r25
    1f22:	96 e9       	ldi	r25, 0x96	; 150
    1f24:	bb 27       	eor	r27, r27
    1f26:	93 95       	inc	r25
    1f28:	f6 95       	lsr	r31
    1f2a:	87 95       	ror	r24
    1f2c:	77 95       	ror	r23
    1f2e:	67 95       	ror	r22
    1f30:	b7 95       	ror	r27
    1f32:	f1 11       	cpse	r31, r1
    1f34:	f8 cf       	rjmp	.-16     	; 0x1f26 <__floatsisf+0x1c>
    1f36:	fa f4       	brpl	.+62     	; 0x1f76 <__floatsisf+0x6c>
    1f38:	bb 0f       	add	r27, r27
    1f3a:	11 f4       	brne	.+4      	; 0x1f40 <__floatsisf+0x36>
    1f3c:	60 ff       	sbrs	r22, 0
    1f3e:	1b c0       	rjmp	.+54     	; 0x1f76 <__floatsisf+0x6c>
    1f40:	6f 5f       	subi	r22, 0xFF	; 255
    1f42:	7f 4f       	sbci	r23, 0xFF	; 255
    1f44:	8f 4f       	sbci	r24, 0xFF	; 255
    1f46:	9f 4f       	sbci	r25, 0xFF	; 255
    1f48:	16 c0       	rjmp	.+44     	; 0x1f76 <__floatsisf+0x6c>
    1f4a:	88 23       	and	r24, r24
    1f4c:	11 f0       	breq	.+4      	; 0x1f52 <__floatsisf+0x48>
    1f4e:	96 e9       	ldi	r25, 0x96	; 150
    1f50:	11 c0       	rjmp	.+34     	; 0x1f74 <__floatsisf+0x6a>
    1f52:	77 23       	and	r23, r23
    1f54:	21 f0       	breq	.+8      	; 0x1f5e <__floatsisf+0x54>
    1f56:	9e e8       	ldi	r25, 0x8E	; 142
    1f58:	87 2f       	mov	r24, r23
    1f5a:	76 2f       	mov	r23, r22
    1f5c:	05 c0       	rjmp	.+10     	; 0x1f68 <__floatsisf+0x5e>
    1f5e:	66 23       	and	r22, r22
    1f60:	71 f0       	breq	.+28     	; 0x1f7e <__floatsisf+0x74>
    1f62:	96 e8       	ldi	r25, 0x86	; 134
    1f64:	86 2f       	mov	r24, r22
    1f66:	70 e0       	ldi	r23, 0x00	; 0
    1f68:	60 e0       	ldi	r22, 0x00	; 0
    1f6a:	2a f0       	brmi	.+10     	; 0x1f76 <__floatsisf+0x6c>
    1f6c:	9a 95       	dec	r25
    1f6e:	66 0f       	add	r22, r22
    1f70:	77 1f       	adc	r23, r23
    1f72:	88 1f       	adc	r24, r24
    1f74:	da f7       	brpl	.-10     	; 0x1f6c <__floatsisf+0x62>
    1f76:	88 0f       	add	r24, r24
    1f78:	96 95       	lsr	r25
    1f7a:	87 95       	ror	r24
    1f7c:	97 f9       	bld	r25, 7
    1f7e:	08 95       	ret

00001f80 <__floatundisf>:
    1f80:	e8 94       	clt

00001f82 <__fp_di2sf>:
    1f82:	f9 2f       	mov	r31, r25
    1f84:	96 eb       	ldi	r25, 0xB6	; 182
    1f86:	ff 23       	and	r31, r31
    1f88:	81 f0       	breq	.+32     	; 0x1faa <__fp_di2sf+0x28>
    1f8a:	12 16       	cp	r1, r18
    1f8c:	13 06       	cpc	r1, r19
    1f8e:	14 06       	cpc	r1, r20
    1f90:	44 0b       	sbc	r20, r20
    1f92:	93 95       	inc	r25
    1f94:	f6 95       	lsr	r31
    1f96:	87 95       	ror	r24
    1f98:	77 95       	ror	r23
    1f9a:	67 95       	ror	r22
    1f9c:	57 95       	ror	r21
    1f9e:	40 40       	sbci	r20, 0x00	; 0
    1fa0:	ff 23       	and	r31, r31
    1fa2:	b9 f7       	brne	.-18     	; 0x1f92 <__fp_di2sf+0x10>
    1fa4:	1b c0       	rjmp	.+54     	; 0x1fdc <__fp_di2sf+0x5a>
    1fa6:	99 27       	eor	r25, r25
    1fa8:	08 95       	ret
    1faa:	88 23       	and	r24, r24
    1fac:	51 f4       	brne	.+20     	; 0x1fc2 <__fp_di2sf+0x40>
    1fae:	98 50       	subi	r25, 0x08	; 8
    1fb0:	d2 f7       	brpl	.-12     	; 0x1fa6 <__fp_di2sf+0x24>
    1fb2:	87 2b       	or	r24, r23
    1fb4:	76 2f       	mov	r23, r22
    1fb6:	65 2f       	mov	r22, r21
    1fb8:	54 2f       	mov	r21, r20
    1fba:	43 2f       	mov	r20, r19
    1fbc:	32 2f       	mov	r19, r18
    1fbe:	20 e0       	ldi	r18, 0x00	; 0
    1fc0:	b1 f3       	breq	.-20     	; 0x1fae <__fp_di2sf+0x2c>
    1fc2:	12 16       	cp	r1, r18
    1fc4:	13 06       	cpc	r1, r19
    1fc6:	14 06       	cpc	r1, r20
    1fc8:	44 0b       	sbc	r20, r20
    1fca:	88 23       	and	r24, r24
    1fcc:	3a f0       	brmi	.+14     	; 0x1fdc <__fp_di2sf+0x5a>
    1fce:	9a 95       	dec	r25
    1fd0:	44 0f       	add	r20, r20
    1fd2:	55 1f       	adc	r21, r21
    1fd4:	66 1f       	adc	r22, r22
    1fd6:	77 1f       	adc	r23, r23
    1fd8:	88 1f       	adc	r24, r24
    1fda:	ca f7       	brpl	.-14     	; 0x1fce <__fp_di2sf+0x4c>
    1fdc:	55 23       	and	r21, r21
    1fde:	4a f4       	brpl	.+18     	; 0x1ff2 <__fp_di2sf+0x70>
    1fe0:	44 0f       	add	r20, r20
    1fe2:	55 1f       	adc	r21, r21
    1fe4:	11 f4       	brne	.+4      	; 0x1fea <__fp_di2sf+0x68>
    1fe6:	60 ff       	sbrs	r22, 0
    1fe8:	04 c0       	rjmp	.+8      	; 0x1ff2 <__fp_di2sf+0x70>
    1fea:	6f 5f       	subi	r22, 0xFF	; 255
    1fec:	7f 4f       	sbci	r23, 0xFF	; 255
    1fee:	8f 4f       	sbci	r24, 0xFF	; 255
    1ff0:	9f 4f       	sbci	r25, 0xFF	; 255
    1ff2:	88 0f       	add	r24, r24
    1ff4:	96 95       	lsr	r25
    1ff6:	87 95       	ror	r24
    1ff8:	97 f9       	bld	r25, 7
    1ffa:	08 95       	ret

00001ffc <__fp_cmp>:
    1ffc:	99 0f       	add	r25, r25
    1ffe:	00 08       	sbc	r0, r0
    2000:	55 0f       	add	r21, r21
    2002:	aa 0b       	sbc	r26, r26
    2004:	e0 e8       	ldi	r30, 0x80	; 128
    2006:	fe ef       	ldi	r31, 0xFE	; 254
    2008:	16 16       	cp	r1, r22
    200a:	17 06       	cpc	r1, r23
    200c:	e8 07       	cpc	r30, r24
    200e:	f9 07       	cpc	r31, r25
    2010:	c0 f0       	brcs	.+48     	; 0x2042 <__fp_cmp+0x46>
    2012:	12 16       	cp	r1, r18
    2014:	13 06       	cpc	r1, r19
    2016:	e4 07       	cpc	r30, r20
    2018:	f5 07       	cpc	r31, r21
    201a:	98 f0       	brcs	.+38     	; 0x2042 <__fp_cmp+0x46>
    201c:	62 1b       	sub	r22, r18
    201e:	73 0b       	sbc	r23, r19
    2020:	84 0b       	sbc	r24, r20
    2022:	95 0b       	sbc	r25, r21
    2024:	39 f4       	brne	.+14     	; 0x2034 <__fp_cmp+0x38>
    2026:	0a 26       	eor	r0, r26
    2028:	61 f0       	breq	.+24     	; 0x2042 <__fp_cmp+0x46>
    202a:	23 2b       	or	r18, r19
    202c:	24 2b       	or	r18, r20
    202e:	25 2b       	or	r18, r21
    2030:	21 f4       	brne	.+8      	; 0x203a <__fp_cmp+0x3e>
    2032:	08 95       	ret
    2034:	0a 26       	eor	r0, r26
    2036:	09 f4       	brne	.+2      	; 0x203a <__fp_cmp+0x3e>
    2038:	a1 40       	sbci	r26, 0x01	; 1
    203a:	a6 95       	lsr	r26
    203c:	8f ef       	ldi	r24, 0xFF	; 255
    203e:	81 1d       	adc	r24, r1
    2040:	81 1d       	adc	r24, r1
    2042:	08 95       	ret

00002044 <__fp_inf>:
    2044:	97 f9       	bld	r25, 7
    2046:	9f 67       	ori	r25, 0x7F	; 127
    2048:	80 e8       	ldi	r24, 0x80	; 128
    204a:	70 e0       	ldi	r23, 0x00	; 0
    204c:	60 e0       	ldi	r22, 0x00	; 0
    204e:	08 95       	ret

00002050 <__fp_nan>:
    2050:	9f ef       	ldi	r25, 0xFF	; 255
    2052:	80 ec       	ldi	r24, 0xC0	; 192
    2054:	08 95       	ret

00002056 <__fp_negdi>:
    2056:	90 95       	com	r25
    2058:	80 95       	com	r24
    205a:	70 95       	com	r23
    205c:	60 95       	com	r22
    205e:	50 95       	com	r21
    2060:	40 95       	com	r20
    2062:	30 95       	com	r19
    2064:	21 95       	neg	r18
    2066:	3f 4f       	sbci	r19, 0xFF	; 255
    2068:	4f 4f       	sbci	r20, 0xFF	; 255
    206a:	5f 4f       	sbci	r21, 0xFF	; 255
    206c:	6f 4f       	sbci	r22, 0xFF	; 255
    206e:	7f 4f       	sbci	r23, 0xFF	; 255
    2070:	8f 4f       	sbci	r24, 0xFF	; 255
    2072:	9f 4f       	sbci	r25, 0xFF	; 255
    2074:	08 95       	ret

00002076 <__fp_pscA>:
    2076:	00 24       	eor	r0, r0
    2078:	0a 94       	dec	r0
    207a:	16 16       	cp	r1, r22
    207c:	17 06       	cpc	r1, r23
    207e:	18 06       	cpc	r1, r24
    2080:	09 06       	cpc	r0, r25
    2082:	08 95       	ret

00002084 <__fp_pscB>:
    2084:	00 24       	eor	r0, r0
    2086:	0a 94       	dec	r0
    2088:	12 16       	cp	r1, r18
    208a:	13 06       	cpc	r1, r19
    208c:	14 06       	cpc	r1, r20
    208e:	05 06       	cpc	r0, r21
    2090:	08 95       	ret

00002092 <__fp_round>:
    2092:	09 2e       	mov	r0, r25
    2094:	03 94       	inc	r0
    2096:	00 0c       	add	r0, r0
    2098:	11 f4       	brne	.+4      	; 0x209e <__fp_round+0xc>
    209a:	88 23       	and	r24, r24
    209c:	52 f0       	brmi	.+20     	; 0x20b2 <__fp_round+0x20>
    209e:	bb 0f       	add	r27, r27
    20a0:	40 f4       	brcc	.+16     	; 0x20b2 <__fp_round+0x20>
    20a2:	bf 2b       	or	r27, r31
    20a4:	11 f4       	brne	.+4      	; 0x20aa <__fp_round+0x18>
    20a6:	60 ff       	sbrs	r22, 0
    20a8:	04 c0       	rjmp	.+8      	; 0x20b2 <__fp_round+0x20>
    20aa:	6f 5f       	subi	r22, 0xFF	; 255
    20ac:	7f 4f       	sbci	r23, 0xFF	; 255
    20ae:	8f 4f       	sbci	r24, 0xFF	; 255
    20b0:	9f 4f       	sbci	r25, 0xFF	; 255
    20b2:	08 95       	ret

000020b4 <__fp_split3>:
    20b4:	57 fd       	sbrc	r21, 7
    20b6:	90 58       	subi	r25, 0x80	; 128
    20b8:	44 0f       	add	r20, r20
    20ba:	55 1f       	adc	r21, r21
    20bc:	59 f0       	breq	.+22     	; 0x20d4 <__fp_splitA+0x10>
    20be:	5f 3f       	cpi	r21, 0xFF	; 255
    20c0:	71 f0       	breq	.+28     	; 0x20de <__fp_splitA+0x1a>
    20c2:	47 95       	ror	r20

000020c4 <__fp_splitA>:
    20c4:	88 0f       	add	r24, r24
    20c6:	97 fb       	bst	r25, 7
    20c8:	99 1f       	adc	r25, r25
    20ca:	61 f0       	breq	.+24     	; 0x20e4 <__fp_splitA+0x20>
    20cc:	9f 3f       	cpi	r25, 0xFF	; 255
    20ce:	79 f0       	breq	.+30     	; 0x20ee <__fp_splitA+0x2a>
    20d0:	87 95       	ror	r24
    20d2:	08 95       	ret
    20d4:	12 16       	cp	r1, r18
    20d6:	13 06       	cpc	r1, r19
    20d8:	14 06       	cpc	r1, r20
    20da:	55 1f       	adc	r21, r21
    20dc:	f2 cf       	rjmp	.-28     	; 0x20c2 <__fp_split3+0xe>
    20de:	46 95       	lsr	r20
    20e0:	f1 df       	rcall	.-30     	; 0x20c4 <__fp_splitA>
    20e2:	08 c0       	rjmp	.+16     	; 0x20f4 <__fp_splitA+0x30>
    20e4:	16 16       	cp	r1, r22
    20e6:	17 06       	cpc	r1, r23
    20e8:	18 06       	cpc	r1, r24
    20ea:	99 1f       	adc	r25, r25
    20ec:	f1 cf       	rjmp	.-30     	; 0x20d0 <__fp_splitA+0xc>
    20ee:	86 95       	lsr	r24
    20f0:	71 05       	cpc	r23, r1
    20f2:	61 05       	cpc	r22, r1
    20f4:	08 94       	sec
    20f6:	08 95       	ret

000020f8 <__fp_zero>:
    20f8:	e8 94       	clt

000020fa <__fp_szero>:
    20fa:	bb 27       	eor	r27, r27
    20fc:	66 27       	eor	r22, r22
    20fe:	77 27       	eor	r23, r23
    2100:	cb 01       	movw	r24, r22
    2102:	97 f9       	bld	r25, 7
    2104:	08 95       	ret

00002106 <__gesf2>:
    2106:	0e 94 fe 0f 	call	0x1ffc	; 0x1ffc <__fp_cmp>
    210a:	08 f4       	brcc	.+2      	; 0x210e <__gesf2+0x8>
    210c:	8f ef       	ldi	r24, 0xFF	; 255
    210e:	08 95       	ret

00002110 <__mulsf3>:
    2110:	0e 94 9b 10 	call	0x2136	; 0x2136 <__mulsf3x>
    2114:	0c 94 49 10 	jmp	0x2092	; 0x2092 <__fp_round>
    2118:	0e 94 3b 10 	call	0x2076	; 0x2076 <__fp_pscA>
    211c:	38 f0       	brcs	.+14     	; 0x212c <__mulsf3+0x1c>
    211e:	0e 94 42 10 	call	0x2084	; 0x2084 <__fp_pscB>
    2122:	20 f0       	brcs	.+8      	; 0x212c <__mulsf3+0x1c>
    2124:	95 23       	and	r25, r21
    2126:	11 f0       	breq	.+4      	; 0x212c <__mulsf3+0x1c>
    2128:	0c 94 22 10 	jmp	0x2044	; 0x2044 <__fp_inf>
    212c:	0c 94 28 10 	jmp	0x2050	; 0x2050 <__fp_nan>
    2130:	11 24       	eor	r1, r1
    2132:	0c 94 7d 10 	jmp	0x20fa	; 0x20fa <__fp_szero>

00002136 <__mulsf3x>:
    2136:	0e 94 5a 10 	call	0x20b4	; 0x20b4 <__fp_split3>
    213a:	70 f3       	brcs	.-36     	; 0x2118 <__mulsf3+0x8>

0000213c <__mulsf3_pse>:
    213c:	95 9f       	mul	r25, r21
    213e:	c1 f3       	breq	.-16     	; 0x2130 <__mulsf3+0x20>
    2140:	95 0f       	add	r25, r21
    2142:	50 e0       	ldi	r21, 0x00	; 0
    2144:	55 1f       	adc	r21, r21
    2146:	62 9f       	mul	r22, r18
    2148:	f0 01       	movw	r30, r0
    214a:	72 9f       	mul	r23, r18
    214c:	bb 27       	eor	r27, r27
    214e:	f0 0d       	add	r31, r0
    2150:	b1 1d       	adc	r27, r1
    2152:	63 9f       	mul	r22, r19
    2154:	aa 27       	eor	r26, r26
    2156:	f0 0d       	add	r31, r0
    2158:	b1 1d       	adc	r27, r1
    215a:	aa 1f       	adc	r26, r26
    215c:	64 9f       	mul	r22, r20
    215e:	66 27       	eor	r22, r22
    2160:	b0 0d       	add	r27, r0
    2162:	a1 1d       	adc	r26, r1
    2164:	66 1f       	adc	r22, r22
    2166:	82 9f       	mul	r24, r18
    2168:	22 27       	eor	r18, r18
    216a:	b0 0d       	add	r27, r0
    216c:	a1 1d       	adc	r26, r1
    216e:	62 1f       	adc	r22, r18
    2170:	73 9f       	mul	r23, r19
    2172:	b0 0d       	add	r27, r0
    2174:	a1 1d       	adc	r26, r1
    2176:	62 1f       	adc	r22, r18
    2178:	83 9f       	mul	r24, r19
    217a:	a0 0d       	add	r26, r0
    217c:	61 1d       	adc	r22, r1
    217e:	22 1f       	adc	r18, r18
    2180:	74 9f       	mul	r23, r20
    2182:	33 27       	eor	r19, r19
    2184:	a0 0d       	add	r26, r0
    2186:	61 1d       	adc	r22, r1
    2188:	23 1f       	adc	r18, r19
    218a:	84 9f       	mul	r24, r20
    218c:	60 0d       	add	r22, r0
    218e:	21 1d       	adc	r18, r1
    2190:	82 2f       	mov	r24, r18
    2192:	76 2f       	mov	r23, r22
    2194:	6a 2f       	mov	r22, r26
    2196:	11 24       	eor	r1, r1
    2198:	9f 57       	subi	r25, 0x7F	; 127
    219a:	50 40       	sbci	r21, 0x00	; 0
    219c:	9a f0       	brmi	.+38     	; 0x21c4 <__mulsf3_pse+0x88>
    219e:	f1 f0       	breq	.+60     	; 0x21dc <__mulsf3_pse+0xa0>
    21a0:	88 23       	and	r24, r24
    21a2:	4a f0       	brmi	.+18     	; 0x21b6 <__mulsf3_pse+0x7a>
    21a4:	ee 0f       	add	r30, r30
    21a6:	ff 1f       	adc	r31, r31
    21a8:	bb 1f       	adc	r27, r27
    21aa:	66 1f       	adc	r22, r22
    21ac:	77 1f       	adc	r23, r23
    21ae:	88 1f       	adc	r24, r24
    21b0:	91 50       	subi	r25, 0x01	; 1
    21b2:	50 40       	sbci	r21, 0x00	; 0
    21b4:	a9 f7       	brne	.-22     	; 0x21a0 <__mulsf3_pse+0x64>
    21b6:	9e 3f       	cpi	r25, 0xFE	; 254
    21b8:	51 05       	cpc	r21, r1
    21ba:	80 f0       	brcs	.+32     	; 0x21dc <__mulsf3_pse+0xa0>
    21bc:	0c 94 22 10 	jmp	0x2044	; 0x2044 <__fp_inf>
    21c0:	0c 94 7d 10 	jmp	0x20fa	; 0x20fa <__fp_szero>
    21c4:	5f 3f       	cpi	r21, 0xFF	; 255
    21c6:	e4 f3       	brlt	.-8      	; 0x21c0 <__mulsf3_pse+0x84>
    21c8:	98 3e       	cpi	r25, 0xE8	; 232
    21ca:	d4 f3       	brlt	.-12     	; 0x21c0 <__mulsf3_pse+0x84>
    21cc:	86 95       	lsr	r24
    21ce:	77 95       	ror	r23
    21d0:	67 95       	ror	r22
    21d2:	b7 95       	ror	r27
    21d4:	f7 95       	ror	r31
    21d6:	e7 95       	ror	r30
    21d8:	9f 5f       	subi	r25, 0xFF	; 255
    21da:	c1 f7       	brne	.-16     	; 0x21cc <__mulsf3_pse+0x90>
    21dc:	fe 2b       	or	r31, r30
    21de:	88 0f       	add	r24, r24
    21e0:	91 1d       	adc	r25, r1
    21e2:	96 95       	lsr	r25
    21e4:	87 95       	ror	r24
    21e6:	97 f9       	bld	r25, 7
    21e8:	08 95       	ret

000021ea <__tablejump2__>:
    21ea:	ee 0f       	add	r30, r30
    21ec:	ff 1f       	adc	r31, r31
    21ee:	05 90       	lpm	r0, Z+
    21f0:	f4 91       	lpm	r31, Z
    21f2:	e0 2d       	mov	r30, r0
    21f4:	09 94       	ijmp

000021f6 <__umoddi3>:
    21f6:	68 94       	set
    21f8:	01 c0       	rjmp	.+2      	; 0x21fc <__udivdi3_umoddi3>

000021fa <__udivdi3>:
    21fa:	e8 94       	clt

000021fc <__udivdi3_umoddi3>:
    21fc:	8f 92       	push	r8
    21fe:	9f 92       	push	r9
    2200:	cf 93       	push	r28
    2202:	df 93       	push	r29
    2204:	0e 94 09 11 	call	0x2212	; 0x2212 <__udivmod64>
    2208:	df 91       	pop	r29
    220a:	cf 91       	pop	r28
    220c:	9f 90       	pop	r9
    220e:	8f 90       	pop	r8
    2210:	08 95       	ret

00002212 <__udivmod64>:
    2212:	88 24       	eor	r8, r8
    2214:	99 24       	eor	r9, r9
    2216:	f4 01       	movw	r30, r8
    2218:	e4 01       	movw	r28, r8
    221a:	b0 e4       	ldi	r27, 0x40	; 64
    221c:	9f 93       	push	r25
    221e:	aa 27       	eor	r26, r26
    2220:	9a 15       	cp	r25, r10
    2222:	8b 04       	cpc	r8, r11
    2224:	9c 04       	cpc	r9, r12
    2226:	ed 05       	cpc	r30, r13
    2228:	fe 05       	cpc	r31, r14
    222a:	cf 05       	cpc	r28, r15
    222c:	d0 07       	cpc	r29, r16
    222e:	a1 07       	cpc	r26, r17
    2230:	98 f4       	brcc	.+38     	; 0x2258 <__udivmod64+0x46>
    2232:	ad 2f       	mov	r26, r29
    2234:	dc 2f       	mov	r29, r28
    2236:	cf 2f       	mov	r28, r31
    2238:	fe 2f       	mov	r31, r30
    223a:	e9 2d       	mov	r30, r9
    223c:	98 2c       	mov	r9, r8
    223e:	89 2e       	mov	r8, r25
    2240:	98 2f       	mov	r25, r24
    2242:	87 2f       	mov	r24, r23
    2244:	76 2f       	mov	r23, r22
    2246:	65 2f       	mov	r22, r21
    2248:	54 2f       	mov	r21, r20
    224a:	43 2f       	mov	r20, r19
    224c:	32 2f       	mov	r19, r18
    224e:	22 27       	eor	r18, r18
    2250:	b8 50       	subi	r27, 0x08	; 8
    2252:	31 f7       	brne	.-52     	; 0x2220 <__udivmod64+0xe>
    2254:	bf 91       	pop	r27
    2256:	27 c0       	rjmp	.+78     	; 0x22a6 <__udivmod64+0x94>
    2258:	1b 2e       	mov	r1, r27
    225a:	bf 91       	pop	r27
    225c:	bb 27       	eor	r27, r27
    225e:	22 0f       	add	r18, r18
    2260:	33 1f       	adc	r19, r19
    2262:	44 1f       	adc	r20, r20
    2264:	55 1f       	adc	r21, r21
    2266:	66 1f       	adc	r22, r22
    2268:	77 1f       	adc	r23, r23
    226a:	88 1f       	adc	r24, r24
    226c:	99 1f       	adc	r25, r25
    226e:	88 1c       	adc	r8, r8
    2270:	99 1c       	adc	r9, r9
    2272:	ee 1f       	adc	r30, r30
    2274:	ff 1f       	adc	r31, r31
    2276:	cc 1f       	adc	r28, r28
    2278:	dd 1f       	adc	r29, r29
    227a:	aa 1f       	adc	r26, r26
    227c:	bb 1f       	adc	r27, r27
    227e:	8a 14       	cp	r8, r10
    2280:	9b 04       	cpc	r9, r11
    2282:	ec 05       	cpc	r30, r12
    2284:	fd 05       	cpc	r31, r13
    2286:	ce 05       	cpc	r28, r14
    2288:	df 05       	cpc	r29, r15
    228a:	a0 07       	cpc	r26, r16
    228c:	b1 07       	cpc	r27, r17
    228e:	48 f0       	brcs	.+18     	; 0x22a2 <__udivmod64+0x90>
    2290:	8a 18       	sub	r8, r10
    2292:	9b 08       	sbc	r9, r11
    2294:	ec 09       	sbc	r30, r12
    2296:	fd 09       	sbc	r31, r13
    2298:	ce 09       	sbc	r28, r14
    229a:	df 09       	sbc	r29, r15
    229c:	a0 0b       	sbc	r26, r16
    229e:	b1 0b       	sbc	r27, r17
    22a0:	21 60       	ori	r18, 0x01	; 1
    22a2:	1a 94       	dec	r1
    22a4:	e1 f6       	brne	.-72     	; 0x225e <__udivmod64+0x4c>
    22a6:	2e f4       	brtc	.+10     	; 0x22b2 <__udivmod64+0xa0>
    22a8:	94 01       	movw	r18, r8
    22aa:	af 01       	movw	r20, r30
    22ac:	be 01       	movw	r22, r28
    22ae:	cd 01       	movw	r24, r26
    22b0:	00 0c       	add	r0, r0
    22b2:	08 95       	ret

000022b4 <__subdi3>:
    22b4:	2a 19       	sub	r18, r10
    22b6:	3b 09       	sbc	r19, r11
    22b8:	4c 09       	sbc	r20, r12
    22ba:	5d 09       	sbc	r21, r13
    22bc:	6e 09       	sbc	r22, r14
    22be:	7f 09       	sbc	r23, r15
    22c0:	80 0b       	sbc	r24, r16
    22c2:	91 0b       	sbc	r25, r17
    22c4:	08 95       	ret

000022c6 <__cmpdi2>:
    22c6:	2a 15       	cp	r18, r10
    22c8:	3b 05       	cpc	r19, r11
    22ca:	4c 05       	cpc	r20, r12
    22cc:	5d 05       	cpc	r21, r13
    22ce:	6e 05       	cpc	r22, r14
    22d0:	7f 05       	cpc	r23, r15
    22d2:	80 07       	cpc	r24, r16
    22d4:	91 07       	cpc	r25, r17
    22d6:	08 95       	ret

000022d8 <__cmpdi2_s8>:
    22d8:	00 24       	eor	r0, r0
    22da:	a7 fd       	sbrc	r26, 7
    22dc:	00 94       	com	r0
    22de:	2a 17       	cp	r18, r26
    22e0:	30 05       	cpc	r19, r0
    22e2:	40 05       	cpc	r20, r0
    22e4:	50 05       	cpc	r21, r0
    22e6:	60 05       	cpc	r22, r0
    22e8:	70 05       	cpc	r23, r0
    22ea:	80 05       	cpc	r24, r0
    22ec:	90 05       	cpc	r25, r0
    22ee:	08 95       	ret

000022f0 <_exit>:
    22f0:	f8 94       	cli

000022f2 <__stop_program>:
    22f2:	ff cf       	rjmp	.-2      	; 0x22f2 <__stop_program>
